; Listing generated by Microsoft (R) Optimizing Compiler Version 12.00.9044.0 

	TITLE	D:\DEV\DNF2001\Stable\D3DDrv\Src\Direct3D8.cpp
	.386P
include listing.inc
if @Version gt 510
.model FLAT
else
_TEXT	SEGMENT PARA USE32 PUBLIC 'CODE'
_TEXT	ENDS
_DATA	SEGMENT DWORD USE32 PUBLIC 'DATA'
_DATA	ENDS
CONST	SEGMENT DWORD USE32 PUBLIC 'CONST'
CONST	ENDS
_BSS	SEGMENT PARA USE32 PUBLIC 'BSS'
_BSS	ENDS
$$SYMBOLS	SEGMENT BYTE USE32 'DEBSYM'
$$SYMBOLS	ENDS
$$TYPES	SEGMENT BYTE USE32 'DEBTYP'
$$TYPES	ENDS
_TLS	SEGMENT DWORD USE32 PUBLIC 'TLS'
_TLS	ENDS
;	COMDAT ??_C@_1HO@DOMN@?$AAG?$AAe?$AAt?$AAA?$AAl?$AAl?$AAo?$AAc?$AAs?$AAS?$AAt?$AAa?$AAt?$AAs?$AA?$CI?$AA?$CJ?$AA?5?$AAn?$AAo?$AAt@
_DATA	SEGMENT DWORD USE32 PUBLIC 'DATA'
_DATA	ENDS
;	COMDAT ??_C@_17JBDG@?$AAn?$AAe?$AAw?$AA?$AA@
_DATA	SEGMENT DWORD USE32 PUBLIC 'DATA'
_DATA	ENDS
;	COMDAT ??_C@_11A@?$AA?$AA@
_DATA	SEGMENT DWORD USE32 PUBLIC 'DATA'
_DATA	ENDS
;	COMDAT ??_C@_13HMCP@?$AA?2?$AA?$AA@
_DATA	SEGMENT DWORD USE32 PUBLIC 'DATA'
_DATA	ENDS
;	COMDAT ??_C@_0BM@MLGP@?4?4?2?4?4?2Core?2Inc?2UnTemplate?4h?$AA@
_DATA	SEGMENT DWORD USE32 PUBLIC 'DATA'
_DATA	ENDS
;	COMDAT ??_C@_06DIHH@Pos?$DO?$DN0?$AA@
_DATA	SEGMENT DWORD USE32 PUBLIC 'DATA'
_DATA	ENDS
;	COMDAT ??_C@_0BF@JEDA@Pos?$CLNum?$DM?$DNBytes?4Num?$CI?$CJ?$AA@
_DATA	SEGMENT DWORD USE32 PUBLIC 'DATA'
_DATA	ENDS
;	COMDAT ??_C@_08NOIE@InPos?$DO?$DN0?$AA@
_DATA	SEGMENT DWORD USE32 PUBLIC 'DATA'
_DATA	ENDS
;	COMDAT ??_C@_0BD@PKIF@InPos?$DM?$DNBytes?4Num?$CI?$CJ?$AA@
_DATA	SEGMENT DWORD USE32 PUBLIC 'DATA'
_DATA	ENDS
;	COMDAT ??_C@_1BM@LKB@?$AAU?$AAn?$AAi?$AAn?$AAi?$AAt?$AAi?$AAa?$AAl?$AAi?$AAz?$AAe?$AAd?$AA?$AA@
_DATA	SEGMENT DWORD USE32 PUBLIC 'DATA'
_DATA	ENDS
;	COMDAT ??_C@_1CC@CPAJ@?$AA?$CF?$AA0?$AA8?$AAX?$AA?$CF?$AA0?$AA8?$AAX?$AA?$CF?$AA0?$AA8?$AAX?$AA?$CF?$AA0?$AA8?$AAX?$AA?$AA@
_DATA	SEGMENT DWORD USE32 PUBLIC 'DATA'
_DATA	ENDS
;	COMDAT ??_C@_1O@KHFL@?$AAS?$AAy?$AAs?$AAt?$AAe?$AAm?$AA?$AA@
_DATA	SEGMENT DWORD USE32 PUBLIC 'DATA'
_DATA	ENDS
;	COMDAT ??_C@_0BK@IPGH@?4?4?2?4?4?2Core?2Inc?2UnObjBas?4h?$AA@
_DATA	SEGMENT DWORD USE32 PUBLIC 'DATA'
_DATA	ENDS
;	COMDAT ??_C@_05LCAF@Class?$AA@
_DATA	SEGMENT DWORD USE32 PUBLIC 'DATA'
_DATA	ENDS
;	COMDAT ??_C@_17HGCB@?$AAF?$AA?$CF?$AAs?$AA?$AA@
_DATA	SEGMENT DWORD USE32 PUBLIC 'DATA'
_DATA	ENDS
;	COMDAT ??_C@_1M@NOGP@?$AAA?$AAc?$AAt?$AAo?$AAr?$AA?$AA@
_DATA	SEGMENT DWORD USE32 PUBLIC 'DATA'
_DATA	ENDS
;	COMDAT ??_C@_13NHLM@?$AAA?$AA?$AA@
_DATA	SEGMENT DWORD USE32 PUBLIC 'DATA'
_DATA	ENDS
;	COMDAT ??_C@_13LOIM@?$AAU?$AA?$AA@
_DATA	SEGMENT DWORD USE32 PUBLIC 'DATA'
_DATA	ENDS
;	COMDAT ??_C@_19FLGB@?$AA?$CF?$AAs?$AA?$CF?$AAs?$AA?$AA@
_DATA	SEGMENT DWORD USE32 PUBLIC 'DATA'
_DATA	ENDS
;	COMDAT ??_C@_0BJ@DMLA@?4?4?2?4?4?2Core?2Inc?2UnClass?4h?$AA@
_DATA	SEGMENT DWORD USE32 PUBLIC 'DATA'
_DATA	ENDS
;	COMDAT ??_C@_0DA@NIKO@Defaults?$FLCPD_Normal?$FN?4Num?$CI?$CJ?$DN?$DNGetP@
_DATA	SEGMENT DWORD USE32 PUBLIC 'DATA'
_DATA	ENDS
;	COMDAT ??_C@_0BL@BEPO@Defaults?$FLCPD_Normal?$FN?4Num?$CI?$CJ?$AA@
_DATA	SEGMENT DWORD USE32 PUBLIC 'DATA'
_DATA	ENDS
;	COMDAT ??_C@_19NGFL@?$AAN?$AAo?$AAn?$AAe?$AA?$AA@
_DATA	SEGMENT DWORD USE32 PUBLIC 'DATA'
_DATA	ENDS
;	COMDAT ??_C@_1BM@ECHK@?$AAU?$AAn?$AAh?$AAa?$AAs?$AAh?$AAe?$AAd?$AA?5?$AAi?$AAt?$AAe?$AAm?$AA?$AA@
_DATA	SEGMENT DWORD USE32 PUBLIC 'DATA'
_DATA	ENDS
;	COMDAT ??_C@_0BH@IEJK@?4?4?2?4?4?2Core?2Inc?2UnMem?4h?$AA@
_DATA	SEGMENT DWORD USE32 PUBLIC 'DATA'
_DATA	ENDS
;	COMDAT ??_C@_0P@DFNF@TopChunk?$DN?$DNNULL?$AA@
_DATA	SEGMENT DWORD USE32 PUBLIC 'DATA'
_DATA	ENDS
;	COMDAT ??_C@_0BI@BION@?4?4?2?4?4?2Core?2Inc?2UnMath?4h?$AA@
_DATA	SEGMENT DWORD USE32 PUBLIC 'DATA'
_DATA	ENDS
;	COMDAT ??_C@_04JDHJ@i?$DO?91?$AA@
_DATA	SEGMENT DWORD USE32 PUBLIC 'DATA'
_DATA	ENDS
;	COMDAT ??_C@_03FBPA@i?$DM3?$AA@
_DATA	SEGMENT DWORD USE32 PUBLIC 'DATA'
_DATA	ENDS
;	COMDAT ??_C@_03PLGH@i?$DM2?$AA@
_DATA	SEGMENT DWORD USE32 PUBLIC 'DATA'
_DATA	ENDS
;	COMDAT ??_C@_1CA@BFE@?$AAR?$AAe?$AAs?$AAo?$AAl?$AAv?$AAi?$AAn?$AAg?$AA?5?$AA?$CF?$AAs?$AA?4?$AA?4?$AA?4?$AA?$AA@
_DATA	SEGMENT DWORD USE32 PUBLIC 'DATA'
_DATA	ENDS
;	COMDAT ??_C@_0BO@EDDF@?4?4?2?4?4?2Engine?2Inc?2UnNetStuff?4h?$AA@
_DATA	SEGMENT DWORD USE32 PUBLIC 'DATA'
_DATA	ENDS
;	COMDAT ??_C@_07GDHO@hThread?$AA@
_DATA	SEGMENT DWORD USE32 PUBLIC 'DATA'
_DATA	ENDS
;	COMDAT ??_C@_15DEDE@?$AA?$CF?$AAs?$AA?$AA@
_DATA	SEGMENT DWORD USE32 PUBLIC 'DATA'
_DATA	ENDS
;	COMDAT ??_C@_0BK@JICC@?4?4?2?4?4?2Engine?2Inc?2ABrush?4h?$AA@
_DATA	SEGMENT DWORD USE32 PUBLIC 'DATA'
_DATA	ENDS
;	COMDAT ??_C@_05NJDM@Brush?$AA@
_DATA	SEGMENT DWORD USE32 PUBLIC 'DATA'
_DATA	ENDS
;	COMDAT ??_C@_05DJGJ@Other?$AA@
_DATA	SEGMENT DWORD USE32 PUBLIC 'DATA'
_DATA	ENDS
;	COMDAT ??_C@_0N@ELOE@Other?9?$DOBrush?$AA@
_DATA	SEGMENT DWORD USE32 PUBLIC 'DATA'
_DATA	ENDS
;	COMDAT ??_C@_1M@NPJG@?$AAT?$AAi?$AAt?$AAl?$AAe?$AA?$AA@
_DATA	SEGMENT DWORD USE32 PUBLIC 'DATA'
_DATA	ENDS
;	COMDAT ??_C@_1BG@COBA@?$AAL?$AAe?$AAv?$AAe?$AAl?$AAI?$AAn?$AAf?$AAo?$AA0?$AA?$AA@
_DATA	SEGMENT DWORD USE32 PUBLIC 'DATA'
_DATA	ENDS
;	COMDAT ??_C@_1CC@JMMP@?$AAI?$AAd?$AAe?$AAa?$AAl?$AAP?$AAl?$AAa?$AAy?$AAe?$AAr?$AAC?$AAo?$AAu?$AAn?$AAt?$AA?$AA@
_DATA	SEGMENT DWORD USE32 PUBLIC 'DATA'
_DATA	ENDS
;	COMDAT ??_C@_0BL@IIGF@?4?4?2?4?4?2Engine?2Inc?2UnLevel?4h?$AA@
_DATA	SEGMENT DWORD USE32 PUBLIC 'DATA'
_DATA	ENDS
;	COMDAT ??_C@_0BA@DADJ@Actors?4Num?$CI?$CJ?$DO?$DN2?$AA@
_DATA	SEGMENT DWORD USE32 PUBLIC 'DATA'
_DATA	ENDS
;	COMDAT ??_C@_0BA@OIOI@Actors?$CI1?$CJ?$CB?$DNNULL?$AA@
_DATA	SEGMENT DWORD USE32 PUBLIC 'DATA'
_DATA	ENDS
;	COMDAT ??_C@_0BH@EHGL@Actors?$CI1?$CJ?9?$DOBrush?$CB?$DNNULL?$AA@
_DATA	SEGMENT DWORD USE32 PUBLIC 'DATA'
_DATA	ENDS
;	COMDAT ??_C@_1CI@PENI@?$AAA?$AAc?$AAt?$AAo?$AAr?$AA?5?$AAn?$AAo?$AAt?$AA?5?$AAf?$AAo?$AAu?$AAn?$AAd?$AA?3?$AA?5?$AA?$CF?$AAs?$AA?$AA@
_DATA	SEGMENT DWORD USE32 PUBLIC 'DATA'
_DATA	ENDS
;	COMDAT ??_C@_09HBFO@Actors?$CI0?$CJ?$AA@
_DATA	SEGMENT DWORD USE32 PUBLIC 'DATA'
_DATA	ENDS
;	COMDAT ??_C@_0CK@OLMN@Actors?$CI0?$CJ?9?$DOIsA?$CIALevelInfo?3?3Stati@
_DATA	SEGMENT DWORD USE32 PUBLIC 'DATA'
_DATA	ENDS
;	COMDAT ??_C@_19PPKP@?$AAU?$AAs?$AAe?$AAr?$AA?$AA@
_DATA	SEGMENT DWORD USE32 PUBLIC 'DATA'
_DATA	ENDS
;	COMDAT ??_C@_1M@KAEM@?$AAR?$AAe?$AAs?$AAe?$AAt?$AA?$AA@
_DATA	SEGMENT DWORD USE32 PUBLIC 'DATA'
_DATA	ENDS
;	COMDAT ??_C@_1BE@ECAA@?$AAH?$AAH?$AAi?$AAt?$AAP?$AAr?$AAo?$AAx?$AAy?$AA?$AA@
_DATA	SEGMENT DWORD USE32 PUBLIC 'DATA'
_DATA	ENDS
;	COMDAT ??_C@_1BK@BNHE@?$AAH?$AAA?$AAc?$AAt?$AAo?$AAr?$AAV?$AAe?$AAr?$AAt?$AAe?$AAx?$AA?$AA@
_DATA	SEGMENT DWORD USE32 PUBLIC 'DATA'
_DATA	ENDS
;	COMDAT ??_C@_0BM@FAAL@?4?4?2?4?4?2Engine?2Inc?2UnRenDev?4h?$AA@
_DATA	SEGMENT DWORD USE32 PUBLIC 'DATA'
_DATA	ENDS
;	COMDAT ??_C@_0N@GBLI@Tesselations?$AA@
_DATA	SEGMENT DWORD USE32 PUBLIC 'DATA'
_DATA	ENDS
;	COMDAT ??_C@_04BEIE@this?$AA@
_DATA	SEGMENT DWORD USE32 PUBLIC 'DATA'
_DATA	ENDS
;	COMDAT ??_C@_1BC@NDIM@?$AAH?$AAB?$AAs?$AAp?$AAS?$AAu?$AAr?$AAf?$AA?$AA@
_DATA	SEGMENT DWORD USE32 PUBLIC 'DATA'
_DATA	ENDS
;	COMDAT ??_C@_1O@OHK@?$AAH?$AAA?$AAc?$AAt?$AAo?$AAr?$AA?$AA@
_DATA	SEGMENT DWORD USE32 PUBLIC 'DATA'
_DATA	ENDS
;	COMDAT ??_C@_1BA@POFM@?$AAH?$AAC?$AAo?$AAo?$AAr?$AAd?$AAs?$AA?$AA@
_DATA	SEGMENT DWORD USE32 PUBLIC 'DATA'
_DATA	ENDS
;	COMDAT ??_C@_15EGHP@?$AA?5?$AA?5?$AA?$AA@
_DATA	SEGMENT DWORD USE32 PUBLIC 'DATA'
_DATA	ENDS
;	COMDAT ??_C@_1M@IEEK@?$AAf?$AAl?$AAo?$AAa?$AAt?$AA?$AA@
_DATA	SEGMENT DWORD USE32 PUBLIC 'DATA'
_DATA	ENDS
;	COMDAT ??_C@_1BC@CONI@?$AAF?$AAo?$AAg?$AAS?$AAt?$AAa?$AAr?$AAt?$AA?$AA@
_DATA	SEGMENT DWORD USE32 PUBLIC 'DATA'
_DATA	ENDS
;	COMDAT ??_C@_1O@GJLM@?$AAF?$AAo?$AAg?$AAE?$AAn?$AAd?$AA?$AA@
_DATA	SEGMENT DWORD USE32 PUBLIC 'DATA'
_DATA	ENDS
;	COMDAT ??_C@_17NLGL@?$AAI?$AAN?$AAT?$AA?$AA@
_DATA	SEGMENT DWORD USE32 PUBLIC 'DATA'
_DATA	ENDS
;	COMDAT ??_C@_1CA@HBNN@?$AAR?$AAe?$AAn?$AAd?$AAe?$AAr?$AAP?$AAa?$AAr?$AAt?$AAi?$AAc?$AAl?$AAe?$AAs?$AA?$AA@
_DATA	SEGMENT DWORD USE32 PUBLIC 'DATA'
_DATA	ENDS
;	COMDAT ??_C@_1BK@FPPB@?$AAR?$AAe?$AAn?$AAd?$AAe?$AAr?$AAM?$AAe?$AAs?$AAh?$AAe?$AAs?$AA?$AA@
_DATA	SEGMENT DWORD USE32 PUBLIC 'DATA'
_DATA	ENDS
;	COMDAT ??_C@_1BO@GOHM@?$AAR?$AAe?$AAn?$AAd?$AAe?$AAr?$AAS?$AAu?$AAr?$AAf?$AAa?$AAc?$AAe?$AAs?$AA?$AA@
_DATA	SEGMENT DWORD USE32 PUBLIC 'DATA'
_DATA	ENDS
;	COMDAT ??_C@_1BI@FDIM@?$AAR?$AAe?$AAn?$AAd?$AAe?$AAr?$AAL?$AAi?$AAn?$AAe?$AAs?$AA?$AA@
_DATA	SEGMENT DWORD USE32 PUBLIC 'DATA'
_DATA	ENDS
;	COMDAT ??_C@_1BI@PCCF@?$AAR?$AAe?$AAn?$AAd?$AAe?$AAr?$AAT?$AAi?$AAl?$AAe?$AAs?$AA?$AA@
_DATA	SEGMENT DWORD USE32 PUBLIC 'DATA'
_DATA	ENDS
;	COMDAT ??_C@_1BK@KAKF@?$AAR?$AAe?$AAn?$AAd?$AAe?$AAr?$AAP?$AAo?$AAi?$AAn?$AAt?$AAs?$AA?$AA@
_DATA	SEGMENT DWORD USE32 PUBLIC 'DATA'
_DATA	ENDS
;	COMDAT ??_C@_1BI@OKEE@?$AAW?$AAo?$AAr?$AAl?$AAd?$AAD?$AAe?$AAt?$AAa?$AAi?$AAl?$AA?$AA@
_DATA	SEGMENT DWORD USE32 PUBLIC 'DATA'
_DATA	ENDS
;	COMDAT ??_C@_1ME@HHPG@?$AAW?$AAh?$AAe?$AAt?$AAh?$AAe?$AAr?$AA?5?$AAo?$AAr?$AA?5?$AAn?$AAo?$AAt?$AA?5?$AAD?$AA3?$AAD?$AA?8?$AAs@
_DATA	SEGMENT DWORD USE32 PUBLIC 'DATA'
_DATA	ENDS
;	COMDAT ??_C@_1BM@FL@?$AAC?$AAa?$AAc?$AAh?$AAe?$AAB?$AAl?$AAe?$AAn?$AAd?$AAi?$AAn?$AAg?$AA?$AA@
_DATA	SEGMENT DWORD USE32 PUBLIC 'DATA'
_DATA	ENDS
;	COMDAT ??_C@_1DA@FCHG@?$AAD?$AAe?$AAt?$AAa?$AAi?$AAl?$AA?5?$AAt?$AAe?$AAx?$AAt?$AAu?$AAr?$AAe?$AA?5?$AAZ?$AA?5?$AAr?$AAa?$AAn@
_DATA	SEGMENT DWORD USE32 PUBLIC 'DATA'
_DATA	ENDS
;	COMDAT ??_C@_1M@BODI@?$AAN?$AAe?$AAa?$AAr?$AAZ?$AA?$AA@
_DATA	SEGMENT DWORD USE32 PUBLIC 'DATA'
_DATA	ENDS
;	COMDAT ??_C@_1BC@MLDM@?$AAG?$AAe?$AAt?$AAN?$AAe?$AAa?$AAr?$AAZ?$AA?$AA@
_DATA	SEGMENT DWORD USE32 PUBLIC 'DATA'
_DATA	ENDS
;	COMDAT ??_C@_15PBC@?$AA?$CF?$AAf?$AA?$AA@
_DATA	SEGMENT DWORD USE32 PUBLIC 'DATA'
_DATA	ENDS
;	COMDAT ??_C@_1BK@BJII@?$AAU?$AAs?$AAe?$AAT?$AAr?$AAi?$AAl?$AAi?$AAn?$AAe?$AAa?$AAr?$AA?$AA@
_DATA	SEGMENT DWORD USE32 PUBLIC 'DATA'
_DATA	ENDS
;	COMDAT ??_C@_1BA@HNBO@?$AAO?$AAp?$AAt?$AAi?$AAo?$AAn?$AAs?$AA?$AA@
_DATA	SEGMENT DWORD USE32 PUBLIC 'DATA'
_DATA	ENDS
;	COMDAT ??_C@_1DC@NGFL@?$AAU?$AAs?$AAe?$AAE?$AAd?$AAi?$AAt?$AAo?$AAr?$AAG?$AAa?$AAm?$AAm?$AAa?$AAC?$AAo?$AAr?$AAr?$AAe?$AAc@
_DATA	SEGMENT DWORD USE32 PUBLIC 'DATA'
_DATA	ENDS
;	COMDAT ??_C@_1CG@HKBJ@?$AAU?$AAs?$AAe?$AAT?$AAr?$AAi?$AAp?$AAl?$AAe?$AAB?$AAu?$AAf?$AAf?$AAe?$AAr?$AAi?$AAn?$AAg?$AA?$AA@
_DATA	SEGMENT DWORD USE32 PUBLIC 'DATA'
_DATA	ENDS
;	COMDAT ??_C@_1BC@CAKA@?$AAU?$AAs?$AAe?$AAV?$AAS?$AAy?$AAn?$AAc?$AA?$AA@
_DATA	SEGMENT DWORD USE32 PUBLIC 'DATA'
_DATA	ENDS
;	COMDAT ??_C@_1BI@DADG@?$AAU?$AAs?$AAe?$AAP?$AAr?$AAe?$AAc?$AAa?$AAc?$AAh?$AAe?$AA?$AA@
_DATA	SEGMENT DWORD USE32 PUBLIC 'DATA'
_DATA	ENDS
;	COMDAT ??_C@_1CO@LCJN@?$AAU?$AAs?$AAe?$AA2?$AAn?$AAd?$AAT?$AAi?$AAe?$AAr?$AAT?$AAe?$AAx?$AAt?$AAu?$AAr?$AAe?$AAC?$AAa?$AAc@
_DATA	SEGMENT DWORD USE32 PUBLIC 'DATA'
_DATA	ENDS
;	COMDAT ??_C@_1CC@FKDE@?$AAU?$AAs?$AAe?$AA3?$AA2?$AAB?$AAi?$AAt?$AAT?$AAe?$AAx?$AAt?$AAu?$AAr?$AAe?$AAs?$AA?$AA@
_DATA	SEGMENT DWORD USE32 PUBLIC 'DATA'
_DATA	ENDS
;	COMDAT ??_C@_0CP@GCJJ@D?3?2DEV?2DNF2001?2Stable?2D3DDrv?2Src@
_DATA	SEGMENT DWORD USE32 PUBLIC 'DATA'
_DATA	ENDS
;	COMDAT ??_C@_0CL@LFAA@Direct3D8?$DNDirect3DCreate8?$CID3D_SD@
_DATA	SEGMENT DWORD USE32 PUBLIC 'DATA'
_DATA	ENDS
;	COMDAT ??_C@_1DI@KLIH@?$AAD?$AAi?$AAr?$AAe?$AAc?$AAt?$AA3?$AAD?$AA?5?$AAa?$AAd?$AAa?$AAp?$AAt?$AAe?$AAr?$AAs?$AA?5?$AAd?$AAe@
_DATA	SEGMENT DWORD USE32 PUBLIC 'DATA'
_DATA	ENDS
;	COMDAT ??_C@_1NE@JBN@?$AA?$FL?$AA?$CF?$AAs?$AA?0?$AA?5?$AA?$CF?$AAi?$AA?$FN?$AA?5?$AAD?$AA3?$AAD?$AA?5?$AAE?$AAR?$AAR?$AAO?$AAR?$AA?3?$AA?5@
_DATA	SEGMENT DWORD USE32 PUBLIC 'DATA'
_DATA	ENDS
;	COMDAT ??_C@_1DA@PCNO@?$AAA?$AAd?$AAa?$AAp?$AAt?$AAo?$AAr?$AA?5?$AAD?$AAe?$AAt?$AAe?$AAc?$AAt?$AAe?$AAd?$AA?3?$AA?5?$AA?$CF?$AAs@
_DATA	SEGMENT DWORD USE32 PUBLIC 'DATA'
_DATA	ENDS
;	COMDAT ??_C@_1DG@FNMM@?$AAN?$AAo?$AA?5?$AAD?$AAi?$AAr?$AAe?$AAc?$AAt?$AA3?$AAD?$AA?5?$AAa?$AAd?$AAa?$AAp?$AAt?$AAe?$AAr?$AAs@
_DATA	SEGMENT DWORD USE32 PUBLIC 'DATA'
_DATA	ENDS
;	COMDAT ??_C@_1BA@DMBD@?$AAP?$AAr?$AAi?$AAm?$AAa?$AAr?$AAy?$AA?$AA@
_DATA	SEGMENT DWORD USE32 PUBLIC 'DATA'
_DATA	ENDS
;	COMDAT ??_C@_1MC@CDHI@?$AA?$FL?$AA?$CF?$AAs?$AA?0?$AA?5?$AA?$CF?$AAi?$AA?$FN?$AA?5?$AAD?$AA3?$AAD?$AA?5?$AAE?$AAR?$AAR?$AAO?$AAR?$AA?3?$AA?5@
_DATA	SEGMENT DWORD USE32 PUBLIC 'DATA'
_DATA	ENDS
;	COMDAT ??_C@_1FG@EPEG@?$AAD?$AAu?$AAk?$AAe?$AAF?$AAo?$AAr?$AAe?$AAv?$AAe?$AAr?$AA?5?$AAD?$AAi?$AAr?$AAe?$AAc?$AAt?$AA3?$AAD@
_DATA	SEGMENT DWORD USE32 PUBLIC 'DATA'
_DATA	ENDS
;	COMDAT ??_C@_1ME@PLCP@?$AA?$FL?$AA?$CF?$AAs?$AA?0?$AA?5?$AA?$CF?$AAi?$AA?$FN?$AA?5?$AAD?$AA3?$AAD?$AA?5?$AAE?$AAR?$AAR?$AAO?$AAR?$AA?3?$AA?5@
_DATA	SEGMENT DWORD USE32 PUBLIC 'DATA'
_DATA	ENDS
;	COMDAT ??_C@_1FE@FDHJ@?$AAE?$AAx?$AAc?$AAe?$AAp?$AAt?$AAi?$AAo?$AAn?$AA?5?$AAi?$AAn?$AA?5?$AAS?$AAa?$AAf?$AAe?$AAR?$AAe?$AAl@
_DATA	SEGMENT DWORD USE32 PUBLIC 'DATA'
_DATA	ENDS
;	COMDAT ??_C@_1EK@CFJJ@?$AAU?$AAD?$AA3?$AAD?$AAR?$AAe?$AAn?$AAd?$AAe?$AAr?$AAD?$AAe?$AAv?$AAi?$AAc?$AAe?$AA?3?$AA?3?$AAS?$AAh@
_DATA	SEGMENT DWORD USE32 PUBLIC 'DATA'
_DATA	ENDS
;	COMDAT ??_C@_1HC@JJLK@?$AA?$FL?$AA?$CF?$AAs?$AA?0?$AA?5?$AA?$CF?$AAi?$AA?$FN?$AA?5?$AAD?$AA3?$AAD?$AA?5?$AAE?$AAR?$AAR?$AAO?$AAR?$AA?3?$AA?5@
_DATA	SEGMENT DWORD USE32 PUBLIC 'DATA'
_DATA	ENDS
;	COMDAT ??_C@_0BA@FEJO@Direct3DDevice8?$AA@
_DATA	SEGMENT DWORD USE32 PUBLIC 'DATA'
_DATA	ENDS
;	COMDAT ??_C@_1EC@LPJP@?$AAT?$AAe?$AAs?$AAt?$AAC?$AAo?$AAo?$AAp?$AAe?$AAr?$AAa?$AAt?$AAi?$AAv?$AAe?$AAL?$AAe?$AAv?$AAe?$AAl@
_DATA	SEGMENT DWORD USE32 PUBLIC 'DATA'
_DATA	ENDS
;	COMDAT ??_C@_1CI@LMHM@?$AAR?$AAe?$AAs?$AAe?$AAt?$AAt?$AAi?$AAn?$AAg?$AA?5?$AAm?$AAo?$AAd?$AAe?$AA?5?$AA?$CI?$AA?$CF?$AAs?$AA?$CJ?$AA?$AA@
_DATA	SEGMENT DWORD USE32 PUBLIC 'DATA'
_DATA	ENDS
;	COMDAT ??_C@_1DI@DLMG@?$AAF?$AAa?$AAi?$AAl?$AAe?$AAd?$AA?5?$AAr?$AAe?$AAs?$AAe?$AAt?$AAt?$AAi?$AAn?$AAg?$AA?5?$AAm?$AAo?$AAd@
_DATA	SEGMENT DWORD USE32 PUBLIC 'DATA'
_DATA	ENDS
;	COMDAT ??_C@_1CO@DHDA@?$AAB?$AAe?$AAg?$AAi?$AAn?$AAS?$AAc?$AAe?$AAn?$AAe?$AA?5?$AAf?$AAa?$AAi?$AAl?$AAe?$AAd?$AA?5?$AA?$CI?$AA?$CF@
_DATA	SEGMENT DWORD USE32 PUBLIC 'DATA'
_DATA	ENDS
;	COMDAT ??_C@_0BC@CHAC@HitStack?4Num?$CI?$CJ?$DN?$DN0?$AA@
_DATA	SEGMENT DWORD USE32 PUBLIC 'DATA'
_DATA	ENDS
;	COMDAT ??_C@_0BA@BICI@Surface?4Texture?$AA@
_DATA	SEGMENT DWORD USE32 PUBLIC 'DATA'
_DATA	ENDS
;	COMDAT ??_C@_0BB@KKDE@Surface?4LightMap?$AA@
_DATA	SEGMENT DWORD USE32 PUBLIC 'DATA'
_DATA	ENDS
;	COMDAT ??_C@_09PNHJ@Stages?$FL0?$FN?$AA@
_DATA	SEGMENT DWORD USE32 PUBLIC 'DATA'
_DATA	ENDS
;	COMDAT ??_C@_09OLND@Stages?$FL1?$FN?$AA@
_DATA	SEGMENT DWORD USE32 PUBLIC 'DATA'
_DATA	ENDS
;	COMDAT ??_C@_01PDMC@V?$AA@
_DATA	SEGMENT DWORD USE32 PUBLIC 'DATA'
_DATA	ENDS
;	COMDAT ??_C@_04GHEP@V?9?$DOU?$AA@
_DATA	SEGMENT DWORD USE32 PUBLIC 'DATA'
_DATA	ENDS
;	COMDAT ??_C@_05MGNJ@V?9?$DOU2?$AA@
_DATA	SEGMENT DWORD USE32 PUBLIC 'DATA'
_DATA	ENDS
;	COMDAT ??_C@_0BF@MPKE@n?$DMARRAY_COUNT?$CIVerts?$CJ?$AA@
_DATA	SEGMENT DWORD USE32 PUBLIC 'DATA'
_DATA	ENDS
;	COMDAT ??_C@_0CJ@LDCG@VertexCount?$DM?$DNACTORPOLY_VERTEXBUF@
_DATA	SEGMENT DWORD USE32 PUBLIC 'DATA'
_DATA	ENDS
;	COMDAT ??_C@_01IJJ@c?$AA@
_DATA	SEGMENT DWORD USE32 PUBLIC 'DATA'
_DATA	ENDS
;	COMDAT ??_C@_1CC@NBJF@?$AAQ?$AAu?$AAe?$AAu?$AAe?$AAd?$AA?5?$AAP?$AAa?$AAr?$AAt?$AAi?$AAc?$AAl?$AAe?$AAs?$AA?$AA@
_DATA	SEGMENT DWORD USE32 PUBLIC 'DATA'
_DATA	ENDS
;	COMDAT ??_C@_0DA@DNJO@TotalParticleCount?$CK6?$DMPARTICLE_VE@
_DATA	SEGMENT DWORD USE32 PUBLIC 'DATA'
_DATA	ENDS
;	COMDAT ??_C@_1O@IFBG@?$AAG?$AAe?$AAt?$AAR?$AAe?$AAs?$AA?$AA@
_DATA	SEGMENT DWORD USE32 PUBLIC 'DATA'
_DATA	ENDS
;	COMDAT ??_C@_1O@PMBP@?$AA?5?$AA?$CF?$AAi?$AAx?$AA?$CF?$AAi?$AA?$AA@
_DATA	SEGMENT DWORD USE32 PUBLIC 'DATA'
_DATA	ENDS
;	COMDAT ??_C@_1M@NBKC@?$AA?$CF?$AAi?$AAx?$AA?$CF?$AAi?$AA?$AA@
_DATA	SEGMENT DWORD USE32 PUBLIC 'DATA'
_DATA	ENDS
;	COMDAT ??_C@_1BA@CCID@?$AAL?$AAo?$AAd?$AAB?$AAi?$AAa?$AAs?$AA?$AA@
_DATA	SEGMENT DWORD USE32 PUBLIC 'DATA'
_DATA	ENDS
;	COMDAT ??_C@_1CK@ECOM@?$AAT?$AAe?$AAx?$AAt?$AAu?$AAr?$AAe?$AA?5?$AAL?$AAo?$AAd?$AAB?$AAi?$AAa?$AAs?$AA?5?$AA?$DN?$AA?5?$AA?$CF?$AAf@
_DATA	SEGMENT DWORD USE32 PUBLIC 'DATA'
_DATA	ENDS
;	COMDAT ??_C@_1KK@HEA@?$AAc?$AAh?$AAe?$AAc?$AAk?$AA?$CI?$AA?$CI?$AAC?$AAo?$AAu?$AAn?$AAt?$AA?$DM?$AAL?$AAI?$AAN?$AAE?$AA_?$AAV?$AAE@
_DATA	SEGMENT DWORD USE32 PUBLIC 'DATA'
_DATA	ENDS
;	COMDAT ??_C@_0BN@NGCA@Count?$DMLINE_VERTEXBUFFER_SIZE?$AA@
_DATA	SEGMENT DWORD USE32 PUBLIC 'DATA'
_DATA	ENDS
;	COMDAT ??_C@_0BK@KHEC@Viewport?9?$DOHitYL?$DM?$DNHIT_SIZE?$AA@
_DATA	SEGMENT DWORD USE32 PUBLIC 'DATA'
_DATA	ENDS
;	COMDAT ??_C@_0BK@MKKI@Viewport?9?$DOHitXL?$DM?$DNHIT_SIZE?$AA@
_DATA	SEGMENT DWORD USE32 PUBLIC 'DATA'
_DATA	ENDS
;	COMDAT ??_C@_1FA@HABJ@?$AAD?$AA3?$AAD?$AA?5?$AAD?$AAr?$AAi?$AAv?$AAe?$AAr?$AA?3?$AA?5?$AAG?$AAe?$AAt?$AAR?$AAe?$AAn?$AAd?$AAe@
_DATA	SEGMENT DWORD USE32 PUBLIC 'DATA'
_DATA	ENDS
;	COMDAT ??_C@_1EC@KMJO@?$AAD?$AA3?$AAD?$AA?5?$AAD?$AAr?$AAi?$AAv?$AAe?$AAr?$AA?3?$AA?5?$AAL?$AAo?$AAc?$AAk?$AAR?$AAe?$AAc?$AAt@
_DATA	SEGMENT DWORD USE32 PUBLIC 'DATA'
_DATA	ENDS
;	COMDAT ??_C@_0BI@MCHO@Count?5?$DM?$DN?5HitStack?4Num?$CI?$CJ?$AA@
_DATA	SEGMENT DWORD USE32 PUBLIC 'DATA'
_DATA	ENDS
;	COMDAT ??_C@_1CAK@KINP@?$AAt?$AAo?$AAt?$AAa?$AAl?$AA?3?$AA?$CF?$AA?4?$AA1?$AAf?$AAm?$AAs?$AA?5?$AA?$CI?$AAs?$AAu?$AAr?$AAf?$AA?$DN?$AA?$CF@
_DATA	SEGMENT DWORD USE32 PUBLIC 'DATA'
_DATA	ENDS
;	COMDAT ??_C@_1KI@FDIG@?$AA?5?$AAF?$AAo?$AAr?$AAm?$AAa?$AAt?$AA?3?$AA?$CF?$AAs?$AA?5?$AA?$CI?$AAA?$AAc?$AAt?$AAi?$AAv?$AAe?$AA?1?$AAB@
_DATA	SEGMENT DWORD USE32 PUBLIC 'DATA'
_DATA	ENDS
;	COMDAT ??_C@_1PM@KNH@?$AA?$FL?$AA?$CF?$AAs?$AA?0?$AA?5?$AA?$CF?$AAi?$AA?$FN?$AA?5?$AAD?$AA3?$AAD?$AA?5?$AAE?$AAR?$AAR?$AAO?$AAR?$AA?3?$AA?5@
_DATA	SEGMENT DWORD USE32 PUBLIC 'DATA'
_DATA	ENDS
;	COMDAT ??_C@_1KE@NMAC@?$AA?$FL?$AA?$CF?$AAs?$AA?0?$AA?5?$AA?$CF?$AAi?$AA?$FN?$AA?5?$AAD?$AA3?$AAD?$AA?5?$AAE?$AAR?$AAR?$AAO?$AAR?$AA?3?$AA?5@
_DATA	SEGMENT DWORD USE32 PUBLIC 'DATA'
_DATA	ENDS
;	COMDAT ??_C@_1NI@LHNJ@?$AA?$FL?$AA?$CF?$AAs?$AA?0?$AA?5?$AA?$CF?$AAi?$AA?$FN?$AA?5?$AAD?$AA3?$AAD?$AA?5?$AAE?$AAR?$AAR?$AAO?$AAR?$AA?3?$AA?5@
_DATA	SEGMENT DWORD USE32 PUBLIC 'DATA'
_DATA	ENDS
;	COMDAT ??_C@_1LE@BAFJ@?$AA?$FL?$AA?$CF?$AAs?$AA?0?$AA?5?$AA?$CF?$AAi?$AA?$FN?$AA?5?$AAD?$AA3?$AAD?$AA?5?$AAE?$AAR?$AAR?$AAO?$AAR?$AA?3?$AA?5@
_DATA	SEGMENT DWORD USE32 PUBLIC 'DATA'
_DATA	ENDS
;	COMDAT ??_C@_0DJ@JEFN@?$CINewSrcBlend?$DO0?$CJ?$CG?$CG?$CINewSrcBlend?$DM?$DND@
_DATA	SEGMENT DWORD USE32 PUBLIC 'DATA'
_DATA	ENDS
;	COMDAT ??_C@_0DJ@CJG@?$CINewDstBlend?$DO0?$CJ?$CG?$CG?$CINewDstBlend?$DM?$DND@
_DATA	SEGMENT DWORD USE32 PUBLIC 'DATA'
_DATA	ENDS
;	COMDAT ??_C@_0DK@OOPG@?$CINewAlphaBlendEnable?$DN?$DNTRUE?$CJ?$HM?$HM?$CINe@
_DATA	SEGMENT DWORD USE32 PUBLIC 'DATA'
_DATA	ENDS
;	COMDAT ??_C@_0CM@ILAF@?$CIdwStage?$DO?$DN0?$CJ?$CG?$CG?$CIdwStage?$DMARRAY_COU@
_DATA	SEGMENT DWORD USE32 PUBLIC 'DATA'
_DATA	ENDS
;	COMDAT ??_C@_1DG@GDLM@?$AAU?$AAn?$AAs?$AAu?$AAp?$AAp?$AAo?$AAr?$AAt?$AAe?$AAd?$AA?5?$AAT?$AAe?$AAx?$AAt?$AAu?$AAr?$AAe?$AA?5@
_DATA	SEGMENT DWORD USE32 PUBLIC 'DATA'
_DATA	ENDS
;	COMDAT ??_C@_1II@DOLE@?$AAD?$AA3?$AAD?$AA?5?$AAD?$AAr?$AAi?$AAv?$AAe?$AAr?$AA?3?$AA?5?$AAE?$AAn?$AAc?$AAo?$AAu?$AAn?$AAt?$AAe@
_DATA	SEGMENT DWORD USE32 PUBLIC 'DATA'
_DATA	ENDS
;	COMDAT ??_C@_1BFI@PKNA@?$AA?$FL?$AA?$CF?$AAs?$AA?0?$AA?5?$AA?$CF?$AAi?$AA?$FN?$AA?5?$AAD?$AA3?$AAD?$AA?5?$AAE?$AAR?$AAR?$AAO?$AAR?$AA?3?$AA?5@
_DATA	SEGMENT DWORD USE32 PUBLIC 'DATA'
_DATA	ENDS
;	COMDAT ??_C@_1IG@GNH@?$AAS?$AAe?$AAt?$AAR?$AAe?$AAs?$AA?$CI?$AAN?$AAe?$AAw?$AAX?$AA?$DN?$AA?$CF?$AAi?$AA?0?$AAN?$AAe?$AAw?$AAY?$AA?$DN@
_DATA	SEGMENT DWORD USE32 PUBLIC 'DATA'
_DATA	ENDS
;	COMDAT ??_C@_09FJBK@Direct3D8?$AA@
_DATA	SEGMENT DWORD USE32 PUBLIC 'DATA'
_DATA	ENDS
;	COMDAT ??_C@_0BB@JBFD@NewColorBytes?$DM?$DN4?$AA@
_DATA	SEGMENT DWORD USE32 PUBLIC 'DATA'
_DATA	ENDS
;	COMDAT ??_C@_1EM@JIDN@?$AAS?$AAu?$AAc?$AAc?$AAe?$AAs?$AAs?$AAf?$AAu?$AAl?$AAl?$AAy?$AA?5?$AAt?$AAe?$AAs?$AAt?$AAe?$AAd?$AA?5@
_DATA	SEGMENT DWORD USE32 PUBLIC 'DATA'
_DATA	ENDS
;	COMDAT ??_C@_1EE@PDPG@?$AAN?$AAo?$AA?5?$AAf?$AAu?$AAl?$AAl?$AAs?$AAc?$AAr?$AAe?$AAe?$AAn?$AA?5?$AAd?$AAi?$AAs?$AAp?$AAl?$AAa@
_DATA	SEGMENT DWORD USE32 PUBLIC 'DATA'
_DATA	ENDS
;	COMDAT ??_C@_1EE@COBK@?$AAN?$AAo?$AA?5?$AAa?$AAc?$AAc?$AAe?$AAp?$AAt?$AAa?$AAb?$AAl?$AAe?$AA?5?$AAd?$AAi?$AAs?$AAp?$AAl?$AAa@
_DATA	SEGMENT DWORD USE32 PUBLIC 'DATA'
_DATA	ENDS
;	COMDAT ??_C@_1FK@OJMD@?$AAB?$AAe?$AAs?$AAt?$AA?9?$AAm?$AAa?$AAt?$AAc?$AAh?$AA?5?$AAd?$AAi?$AAs?$AAp?$AAl?$AAa?$AAy?$AA?5?$AAm@
_DATA	SEGMENT DWORD USE32 PUBLIC 'DATA'
_DATA	ENDS
;	COMDAT ??_C@_1CE@EFFL@?$AAC?$AAh?$AAe?$AAc?$AAk?$AAD?$AAe?$AAv?$AAi?$AAc?$AAe?$AAF?$AAo?$AAr?$AAm?$AAa?$AAt?$AA?$AA@
_DATA	SEGMENT DWORD USE32 PUBLIC 'DATA'
_DATA	ENDS
;	COMDAT ??_C@_1CO@HHEN@?$AAC?$AAh?$AAe?$AAc?$AAk?$AAD?$AAe?$AAp?$AAt?$AAh?$AAS?$AAt?$AAe?$AAn?$AAc?$AAi?$AAl?$AAM?$AAa?$AAt@
_DATA	SEGMENT DWORD USE32 PUBLIC 'DATA'
_DATA	ENDS
;	COMDAT ??_C@_1IA@JLIJ@?$AA?$FL?$AA?$CF?$AAs?$AA?0?$AA?5?$AA?$CF?$AAi?$AA?$FN?$AA?5?$AAD?$AA3?$AAD?$AA?5?$AAE?$AAR?$AAR?$AAO?$AAR?$AA?3?$AA?5@
_DATA	SEGMENT DWORD USE32 PUBLIC 'DATA'
_DATA	ENDS
;	COMDAT ??_C@_1CE@BLNE@?$AAV?$AAi?$AAe?$AAw?$AAp?$AAo?$AAr?$AAt?$AAh?$AAW?$AAn?$AAd?$AA?3?$AA?$CF?$AA0?$AA8?$AAx?$AA?$AA@
_DATA	SEGMENT DWORD USE32 PUBLIC 'DATA'
_DATA	ENDS
;	COMDAT ??_C@_1LE@DHNM@?$AAF?$AAa?$AAi?$AAl?$AAe?$AAd?$AA?5?$AAt?$AAo?$AA?5?$AAs?$AAe?$AAt?$AA?5?$AAh?$AAa?$AAr?$AAd?$AAw?$AAa@
_DATA	SEGMENT DWORD USE32 PUBLIC 'DATA'
_DATA	ENDS
;	COMDAT ??_C@_1HA@ONNK@?$AAC?$AAr?$AAe?$AAa?$AAt?$AAe?$AAD?$AAe?$AAv?$AAi?$AAc?$AAe?$AA?5?$AA?$CI?$AAF?$AAa?$AAi?$AAl?$AAe?$AAd@
_DATA	SEGMENT DWORD USE32 PUBLIC 'DATA'
_DATA	ENDS
;	COMDAT ??_C@_1FI@IKFB@?$AAD?$AAe?$AAv?$AAi?$AAc?$AAe?$AA?5?$AAi?$AAs?$AA?5?$AAu?$AAs?$AAi?$AAn?$AAg?$AA?5?$AAs?$AAo?$AAf?$AAt@
_DATA	SEGMENT DWORD USE32 PUBLIC 'DATA'
_DATA	ENDS
;	COMDAT ??_C@_0DF@FMGL@?$CBFAILED?$CIDirect3DDevice8?9?$DOSetView@
_DATA	SEGMENT DWORD USE32 PUBLIC 'DATA'
_DATA	ENDS
;	COMDAT ??_C@_0DF@HNEL@?$CBFAILED?$CIDirect3DDevice8?9?$DOGetView@
_DATA	SEGMENT DWORD USE32 PUBLIC 'DATA'
_DATA	ENDS
;	COMDAT ??_C@_1BC@PNPN@?$AAA?$AA8?$AAR?$AA8?$AAG?$AA8?$AAB?$AA8?$AA?$AA@
_DATA	SEGMENT DWORD USE32 PUBLIC 'DATA'
_DATA	ENDS
;	COMDAT ??_C@_1BC@FEAG@?$AAA?$AA1?$AAR?$AA5?$AAG?$AA5?$AAB?$AA5?$AA?$AA@
_DATA	SEGMENT DWORD USE32 PUBLIC 'DATA'
_DATA	ENDS
;	COMDAT ??_C@_1GM@CMDP@?$AAD?$AA3?$AAD?$AA?5?$AAD?$AAr?$AAi?$AAv?$AAe?$AAr?$AA?3?$AA?5?$AAM?$AAi?$AAp?$AAm?$AAa?$AAp?$AAp?$AAi@
_DATA	SEGMENT DWORD USE32 PUBLIC 'DATA'
_DATA	ENDS
;	COMDAT ??_C@_1DO@LJFH@?$AAD?$AA3?$AAD?$AA?5?$AAD?$AAr?$AAi?$AAv?$AAe?$AAr?$AA?3?$AA?5?$AAS?$AAu?$AAp?$AAp?$AAo?$AAr?$AAt?$AAs@
_DATA	SEGMENT DWORD USE32 PUBLIC 'DATA'
_DATA	ENDS
;	COMDAT ??_C@_1EM@HNBH@?$AAD?$AA3?$AAD?$AA?5?$AAD?$AAr?$AAi?$AAv?$AAe?$AAr?$AA?3?$AA?5?$AAS?$AAu?$AAp?$AAp?$AAo?$AAr?$AAt?$AAs@
_DATA	SEGMENT DWORD USE32 PUBLIC 'DATA'
_DATA	ENDS
;	COMDAT ??_C@_1EO@FHMI@?$AAD?$AA3?$AAD?$AA?5?$AAD?$AAr?$AAi?$AAv?$AAe?$AAr?$AA?3?$AA?5?$AAS?$AAu?$AAp?$AAp?$AAo?$AAr?$AAt?$AAs@
_DATA	SEGMENT DWORD USE32 PUBLIC 'DATA'
_DATA	ENDS
;	COMDAT ??_C@_0HG@OIHH@Viewport?9?$DOResizeViewport?$CI?$CIFullsc@
_DATA	SEGMENT DWORD USE32 PUBLIC 'DATA'
_DATA	ENDS
;	COMDAT ??_C@_1BA@JDJI@?$AAU?$AAn?$AAk?$AAn?$AAo?$AAw?$AAn?$AA?$AA@
_DATA	SEGMENT DWORD USE32 PUBLIC 'DATA'
_DATA	ENDS
;	COMDAT ??_C@_1CA@MMOI@?$AAD?$AA3?$AAD?$AAF?$AAM?$AAT?$AA_?$AAA?$AA8?$AAR?$AA8?$AAG?$AA8?$AAB?$AA8?$AA?$AA@
_DATA	SEGMENT DWORD USE32 PUBLIC 'DATA'
_DATA	ENDS
;	COMDAT ??_C@_1CA@NLNL@?$AAD?$AA3?$AAD?$AAF?$AAM?$AAT?$AA_?$AAX?$AA8?$AAR?$AA8?$AAG?$AA8?$AAB?$AA8?$AA?$AA@
_DATA	SEGMENT DWORD USE32 PUBLIC 'DATA'
_DATA	ENDS
;	COMDAT ??_C@_1BM@CBJB@?$AAD?$AA3?$AAD?$AAF?$AAM?$AAT?$AA_?$AAR?$AA5?$AAG?$AA6?$AAB?$AA5?$AA?$AA@
_DATA	SEGMENT DWORD USE32 PUBLIC 'DATA'
_DATA	ENDS
;	COMDAT ??_C@_1CA@HCCA@?$AAD?$AA3?$AAD?$AAF?$AAM?$AAT?$AA_?$AAX?$AA1?$AAR?$AA5?$AAG?$AA5?$AAB?$AA5?$AA?$AA@
_DATA	SEGMENT DWORD USE32 PUBLIC 'DATA'
_DATA	ENDS
;	COMDAT ??_C@_1DA@PNOF@?$AAR?$AAe?$AAn?$AAd?$AAe?$AAr?$AAt?$AAa?$AAr?$AAg?$AAe?$AAt?$AA?5?$AAf?$AAo?$AAr?$AAm?$AAa?$AAt?$AA?3@
_DATA	SEGMENT DWORD USE32 PUBLIC 'DATA'
_DATA	ENDS
;	COMDAT ??_C@_1DA@KNFF@?$AAC?$AAl?$AAi?$AAp?$AAp?$AAe?$AAr?$AA?5?$AAt?$AAe?$AAx?$AAt?$AAu?$AAr?$AAe?$AA?5?$AAc?$AAr?$AAe?$AAa@
_DATA	SEGMENT DWORD USE32 PUBLIC 'DATA'
_DATA	ENDS
;	COMDAT ??_C@_1EG@JNCJ@?$AAS?$AAe?$AAt?$AAR?$AAe?$AAs?$AA?3?$AA?5?$AAI?$AAn?$AAi?$AAt?$AAR?$AAe?$AAn?$AAd?$AAe?$AAr?$AAT?$AAa@
_DATA	SEGMENT DWORD USE32 PUBLIC 'DATA'
_DATA	ENDS
;	COMDAT ??_C@_1BA@CMPN@?$AA?$CF?$AAs?$AA?5?$AA?$CI?$AA?$CF?$AAs?$AA?$CJ?$AA?$AA@
_DATA	SEGMENT DWORD USE32 PUBLIC 'DATA'
_DATA	ENDS
;	COMDAT ??_C@_1FM@ONLA@?$AAI?$AAn?$AAi?$AAt?$AAR?$AAe?$AAn?$AAd?$AAe?$AAr?$AAT?$AAa?$AAr?$AAg?$AAe?$AAt?$AAR?$AAe?$AAs?$AA?3@
_DATA	SEGMENT DWORD USE32 PUBLIC 'DATA'
_DATA	ENDS
;	COMDAT ??_C@_1HG@MLIH@?$AAI?$AAn?$AAi?$AAt?$AAR?$AAe?$AAn?$AAd?$AAe?$AAr?$AAT?$AAa?$AAr?$AAg?$AAe?$AAt?$AAR?$AAe?$AAs?$AA?3@
_DATA	SEGMENT DWORD USE32 PUBLIC 'DATA'
_DATA	ENDS
;	COMDAT ??_C@_1GE@GOPI@?$AAS?$AAh?$AAu?$AAt?$AAd?$AAo?$AAw?$AAn?$AAR?$AAe?$AAn?$AAd?$AAe?$AAr?$AAT?$AAa?$AAr?$AAg?$AAe?$AAt@
_DATA	SEGMENT DWORD USE32 PUBLIC 'DATA'
_DATA	ENDS
;	COMDAT ??_C@_1FE@MDFI@?$AAD?$AAe?$AAs?$AAt?$AAr?$AAo?$AAy?$AAR?$AAe?$AAn?$AAd?$AAe?$AAr?$AAT?$AAa?$AAr?$AAg?$AAe?$AAt?$AA?3@
_DATA	SEGMENT DWORD USE32 PUBLIC 'DATA'
_DATA	ENDS
;	COMDAT ??_C@_1EM@HNNJ@?$AAS?$AAe?$AAt?$AAR?$AAe?$AAn?$AAd?$AAe?$AAr?$AAT?$AAa?$AAr?$AAg?$AAe?$AAt?$AA?3?$AA?5?$AAI?$AAn?$AAv@
_DATA	SEGMENT DWORD USE32 PUBLIC 'DATA'
_DATA	ENDS
;	COMDAT ??_C@_1EI@PKCN@?$AAA?$AAd?$AAd?$AAP?$AAr?$AAo?$AAj?$AAe?$AAc?$AAt?$AAo?$AAr?$AA?3?$AA?5?$AAN?$AAU?$AAL?$AAL?$AA?5?$AAR@
_DATA	SEGMENT DWORD USE32 PUBLIC 'DATA'
_DATA	ENDS
;	COMDAT ??_C@_1EG@EKPK@?$AAA?$AAd?$AAd?$AAP?$AAr?$AAo?$AAj?$AAe?$AAc?$AAt?$AAo?$AAr?$AA?3?$AA?5?$AAI?$AAn?$AAv?$AAa?$AAl?$AAi@
_DATA	SEGMENT DWORD USE32 PUBLIC 'DATA'
_DATA	ENDS
;	COMDAT ??_C@_1EI@BJID@?$AAA?$AAd?$AAd?$AAP?$AAr?$AAo?$AAj?$AAe?$AAc?$AAt?$AAo?$AAr?$AA?3?$AA?5?$AAI?$AAn?$AAv?$AAa?$AAl?$AAi@
_DATA	SEGMENT DWORD USE32 PUBLIC 'DATA'
_DATA	ENDS
;	COMDAT ??_C@_1EA@OCBK@?$AAA?$AAd?$AAd?$AAP?$AAr?$AAo?$AAj?$AAe?$AAc?$AAt?$AAo?$AAr?$AA?3?$AA?5?$AAN?$AAU?$AAL?$AAL?$AA?5?$AAR@
_DATA	SEGMENT DWORD USE32 PUBLIC 'DATA'
_DATA	ENDS
;	COMDAT ??_C@_1CC@LEJP@?$AAU?$AAD?$AA3?$AAD?$AAR?$AAe?$AAn?$AAd?$AAe?$AAr?$AAD?$AAe?$AAv?$AAi?$AAc?$AAe?$AA?$AA@
_DATA	SEGMENT DWORD USE32 PUBLIC 'DATA'
_DATA	ENDS
;	COMDAT ??_C@_08GCAE@Index?$DO?$DN0?$AA@
_DATA	SEGMENT DWORD USE32 PUBLIC 'DATA'
_DATA	ENDS
;	COMDAT ??_C@_0BA@FEMP@Index?$DM?$DNArrayNum?$AA@
_DATA	SEGMENT DWORD USE32 PUBLIC 'DATA'
_DATA	ENDS
;	COMDAT ??_C@_0BG@BEDF@Index?$CLCount?$DM?$DNArrayNum?$AA@
_DATA	SEGMENT DWORD USE32 PUBLIC 'DATA'
_DATA	ENDS
;	COMDAT ??_C@_08DHAB@InDevice?$AA@
_DATA	SEGMENT DWORD USE32 PUBLIC 'DATA'
_DATA	ENDS
;	COMDAT ??_C@_08MGPM@InLength?$AA@
_DATA	SEGMENT DWORD USE32 PUBLIC 'DATA'
_DATA	ENDS
;	COMDAT ??_C@_1PE@CNOI@?$AA?$FL?$AA?$CF?$AAs?$AA?0?$AA?5?$AA?$CF?$AAi?$AA?$FN?$AA?5?$AAD?$AA3?$AAD?$AA?5?$AAE?$AAR?$AAR?$AAO?$AAR?$AA?3?$AA?5@
_DATA	SEGMENT DWORD USE32 PUBLIC 'DATA'
_DATA	ENDS
;	COMDAT ??_C@_0O@DFJN@VertexBuffer8?$AA@
_DATA	SEGMENT DWORD USE32 PUBLIC 'DATA'
_DATA	ENDS
;	COMDAT ??_C@_06CAAP@Length?$AA@
_DATA	SEGMENT DWORD USE32 PUBLIC 'DATA'
_DATA	ENDS
;	COMDAT ??_C@_0L@GIGE@Num?$DMLength?$AA@
_DATA	SEGMENT DWORD USE32 PUBLIC 'DATA'
_DATA	ENDS
;	COMDAT ??_C@_1PE@BPNP@?$AA?$FL?$AA?$CF?$AAs?$AA?0?$AA?5?$AA?$CF?$AAi?$AA?$FN?$AA?5?$AAD?$AA3?$AAD?$AA?5?$AAE?$AAR?$AAR?$AAO?$AAR?$AA?3?$AA?5@
_DATA	SEGMENT DWORD USE32 PUBLIC 'DATA'
_DATA	ENDS
;	COMDAT ??_C@_1PE@FOHM@?$AA?$FL?$AA?$CF?$AAs?$AA?0?$AA?5?$AA?$CF?$AAi?$AA?$FN?$AA?5?$AAD?$AA3?$AAD?$AA?5?$AAE?$AAR?$AAR?$AAO?$AAR?$AA?3?$AA?5@
_DATA	SEGMENT DWORD USE32 PUBLIC 'DATA'
_DATA	ENDS
;	COMDAT ??_C@_1MM@PEIK@?$AA?$FL?$AA?$CF?$AAs?$AA?0?$AA?5?$AA?$CF?$AAi?$AA?$FN?$AA?5?$AAD?$AA3?$AAD?$AA?5?$AAE?$AAR?$AAR?$AAO?$AAR?$AA?3?$AA?5@
_DATA	SEGMENT DWORD USE32 PUBLIC 'DATA'
_DATA	ENDS
;	COMDAT ??_C@_1GE@ILE@?$AA?$FL?$AA?$CF?$AAs?$AA?0?$AA?5?$AA?$CF?$AAi?$AA?$FN?$AA?5?$AAD?$AA3?$AAD?$AA?5?$AAE?$AAR?$AAR?$AAO?$AAR?$AA?3?$AA?5@
_DATA	SEGMENT DWORD USE32 PUBLIC 'DATA'
_DATA	ENDS
;	COMDAT ??_C@_06NBPC@Device?$AA@
_DATA	SEGMENT DWORD USE32 PUBLIC 'DATA'
_DATA	ENDS
;	COMDAT ??_C@_1KO@HMIJ@?$AA?$FL?$AA?$CF?$AAs?$AA?0?$AA?5?$AA?$CF?$AAi?$AA?$FN?$AA?5?$AAD?$AA3?$AAD?$AA?5?$AAE?$AAR?$AAR?$AAO?$AAR?$AA?3?$AA?5@
_DATA	SEGMENT DWORD USE32 PUBLIC 'DATA'
_DATA	ENDS
;	COMDAT ??_C@_1HE@LLBE@?$AA?$FL?$AA?$CF?$AAs?$AA?0?$AA?5?$AA?$CF?$AAi?$AA?$FN?$AA?5?$AAD?$AA3?$AAD?$AA?5?$AAE?$AAR?$AAR?$AAO?$AAR?$AA?3?$AA?5@
_DATA	SEGMENT DWORD USE32 PUBLIC 'DATA'
_DATA	ENDS
;	COMDAT ??_C@_1JK@JILN@?$AA?$FL?$AA?$CF?$AAs?$AA?0?$AA?5?$AA?$CF?$AAi?$AA?$FN?$AA?5?$AAD?$AA3?$AAD?$AA?5?$AAE?$AAR?$AAR?$AAO?$AAR?$AA?3?$AA?5@
_DATA	SEGMENT DWORD USE32 PUBLIC 'DATA'
_DATA	ENDS
;	COMDAT ??_C@_1BI@IADD@?$AAH?$AAa?$AAs?$AAh?$AAM?$AAa?$AAp?$AAH?$AAa?$AAs?$AAh?$AA?$AA@
_DATA	SEGMENT DWORD USE32 PUBLIC 'DATA'
_DATA	ENDS
CRT$XCA	SEGMENT DWORD USE32 PUBLIC 'DATA'
CRT$XCA	ENDS
CRT$XCU	SEGMENT DWORD USE32 PUBLIC 'DATA'
CRT$XCU	ENDS
CRT$XCL	SEGMENT DWORD USE32 PUBLIC 'DATA'
CRT$XCL	ENDS
CRT$XCC	SEGMENT DWORD USE32 PUBLIC 'DATA'
CRT$XCC	ENDS
CRT$XCZ	SEGMENT DWORD USE32 PUBLIC 'DATA'
CRT$XCZ	ENDS
xdata$x	SEGMENT DWORD USE32 PUBLIC 'CONST'
xdata$x	ENDS
;	COMDAT ??8@YAHABU_GUID@@0@Z
_TEXT	SEGMENT PARA USE32 PUBLIC 'CODE'
_TEXT	ENDS
;	COMDAT _sqrtf
_TEXT	SEGMENT PARA USE32 PUBLIC 'CODE'
_TEXT	ENDS
;	COMDAT ??0D3DXVECTOR3@@QAE@XZ
_TEXT	SEGMENT PARA USE32 PUBLIC 'CODE'
_TEXT	ENDS
;	COMDAT ??0D3DXMATRIX@@QAE@XZ
_TEXT	SEGMENT PARA USE32 PUBLIC 'CODE'
_TEXT	ENDS
;	COMDAT ??0D3DXQUATERNION@@QAE@XZ
_TEXT	SEGMENT PARA USE32 PUBLIC 'CODE'
_TEXT	ENDS
;	COMDAT ??0D3DXVECTOR2@@QAE@MM@Z
_TEXT	SEGMENT PARA USE32 PUBLIC 'CODE'
_TEXT	ENDS
;	COMDAT ??0D3DXVECTOR3@@QAE@MMM@Z
_TEXT	SEGMENT PARA USE32 PUBLIC 'CODE'
_TEXT	ENDS
;	COMDAT ??0D3DXVECTOR4@@QAE@MMMM@Z
_TEXT	SEGMENT PARA USE32 PUBLIC 'CODE'
_TEXT	ENDS
;	COMDAT ??0D3DXMATRIX@@QAE@MMMMMMMMMMMMMMMM@Z
_TEXT	SEGMENT PARA USE32 PUBLIC 'CODE'
_TEXT	ENDS
;	COMDAT ??0D3DXQUATERNION@@QAE@MMMM@Z
_TEXT	SEGMENT PARA USE32 PUBLIC 'CODE'
_TEXT	ENDS
;	COMDAT ??0D3DXPLANE@@QAE@MMMM@Z
_TEXT	SEGMENT PARA USE32 PUBLIC 'CODE'
_TEXT	ENDS
;	COMDAT ??0D3DXCOLOR@@QAE@MMMM@Z
_TEXT	SEGMENT PARA USE32 PUBLIC 'CODE'
_TEXT	ENDS
;	COMDAT ?appRound@@YAHM@Z
_TEXT	SEGMENT PARA USE32 PUBLIC 'CODE'
_TEXT	ENDS
;	COMDAT ?appCycles@@YAKXZ
_TEXT	SEGMENT PARA USE32 PUBLIC 'CODE'
_TEXT	ENDS
;	COMDAT ?appRDTSC@@YA_JXZ
_TEXT	SEGMENT PARA USE32 PUBLIC 'CODE'
_TEXT	ENDS
;	COMDAT ?appSeconds@@YANXZ
_TEXT	SEGMENT PARA USE32 PUBLIC 'CODE'
_TEXT	ENDS
;	COMDAT __imp_?Serialize@FOutputDevice@@UAEXPBDW4EName@@@Z
_TEXT	SEGMENT PARA USE32 PUBLIC 'CODE'
_TEXT	ENDS
;	COMDAT __imp_?Flush@FOutputDevice@@UAEXXZ
_TEXT	SEGMENT PARA USE32 PUBLIC 'CODE'
_TEXT	ENDS
;	COMDAT ??1FConfigCache@@UAE@XZ
_TEXT	SEGMENT PARA USE32 PUBLIC 'CODE'
_TEXT	ENDS
;	COMDAT ??_GFConfigCache@@UAEPAXI@Z
_TEXT	SEGMENT PARA USE32 PUBLIC 'CODE'
_TEXT	ENDS
;	COMDAT ?appToUpper@@YAGG@Z
_TEXT	SEGMENT PARA USE32 PUBLIC 'CODE'
_TEXT	ENDS
;	COMDAT ?appToLower@@YAGG@Z
_TEXT	SEGMENT PARA USE32 PUBLIC 'CODE'
_TEXT	ENDS
;	COMDAT ?appStrihash@@YAKPBG@Z
_TEXT	SEGMENT PARA USE32 PUBLIC 'CODE'
_TEXT	ENDS
;	COMDAT ?appSin@@YANN@Z
_TEXT	SEGMENT PARA USE32 PUBLIC 'CODE'
_TEXT	ENDS
;	COMDAT ?appCos@@YANN@Z
_TEXT	SEGMENT PARA USE32 PUBLIC 'CODE'
_TEXT	ENDS
;	COMDAT ?appTan@@YANN@Z
_TEXT	SEGMENT PARA USE32 PUBLIC 'CODE'
_TEXT	ENDS
;	COMDAT ?appAcos@@YANN@Z
_TEXT	SEGMENT PARA USE32 PUBLIC 'CODE'
_TEXT	ENDS
;	COMDAT ?appAtan@@YANN@Z
_TEXT	SEGMENT PARA USE32 PUBLIC 'CODE'
_TEXT	ENDS
;	COMDAT ?appPow@@YANNN@Z
_TEXT	SEGMENT PARA USE32 PUBLIC 'CODE'
_TEXT	ENDS
;	COMDAT ?appSrand@@YAXK@Z
_TEXT	SEGMENT PARA USE32 PUBLIC 'CODE'
_TEXT	ENDS
;	COMDAT ?appRand@@YAHXZ
_TEXT	SEGMENT PARA USE32 PUBLIC 'CODE'
_TEXT	ENDS
;	COMDAT ?appFrand@@YAMXZ
_TEXT	SEGMENT PARA USE32 PUBLIC 'CODE'
_TEXT	ENDS
;	COMDAT ?appSqrt@@YANN@Z
_TEXT	SEGMENT PARA USE32 PUBLIC 'CODE'
_TEXT	ENDS
;	COMDAT ?appFloor@@YAHM@Z
_TEXT	SEGMENT PARA USE32 PUBLIC 'CODE'
_TEXT	ENDS
;	COMDAT ?appMemcpy@@YAXPAXPBXH@Z
_TEXT	SEGMENT PARA USE32 PUBLIC 'CODE'
_TEXT	ENDS
;	COMDAT ?appMemzero@@YAXPAXI@Z
_TEXT	SEGMENT PARA USE32 PUBLIC 'CODE'
_TEXT	ENDS
;	COMDAT ??2@YAPAXIPBG@Z
_TEXT	SEGMENT PARA USE32 PUBLIC 'CODE'
_TEXT	ENDS
;	COMDAT ??2@YAPAXI@Z
_TEXT	SEGMENT PARA USE32 PUBLIC 'CODE'
_TEXT	ENDS
;	COMDAT ??3@YAXPAX@Z
_TEXT	SEGMENT PARA USE32 PUBLIC 'CODE'
_TEXT	ENDS
;	COMDAT ??2@YAPAXIPAX@Z
_TEXT	SEGMENT PARA USE32 PUBLIC 'CODE'
_TEXT	ENDS
;	COMDAT ??3@YAXPAX0@Z
_TEXT	SEGMENT PARA USE32 PUBLIC 'CODE'
_TEXT	ENDS
;	COMDAT ??_U@YAPAXIPBG@Z
_TEXT	SEGMENT PARA USE32 PUBLIC 'CODE'
_TEXT	ENDS
;	COMDAT ??_U@YAPAXI@Z
_TEXT	SEGMENT PARA USE32 PUBLIC 'CODE'
_TEXT	ENDS
;	COMDAT ??_V@YAXPAX@Z
_TEXT	SEGMENT PARA USE32 PUBLIC 'CODE'
_TEXT	ENDS
;	COMDAT __imp_??1FArchive@@UAE@XZ
_TEXT	SEGMENT PARA USE32 PUBLIC 'CODE'
_TEXT	ENDS
;	COMDAT __imp_?SerializeBits@FArchive@@UAEXPAXH@Z
_TEXT	SEGMENT PARA USE32 PUBLIC 'CODE'
_TEXT	ENDS
;	COMDAT __imp_?SerializeInt@FArchive@@UAEXAAKK@Z
_TEXT	SEGMENT PARA USE32 PUBLIC 'CODE'
_TEXT	ENDS
;	COMDAT __imp_?Preload@FArchive@@UAEXPAVUObject@@@Z
_TEXT	SEGMENT PARA USE32 PUBLIC 'CODE'
_TEXT	ENDS
;	COMDAT __imp_?CountBytes@FArchive@@UAEXKK@Z
_TEXT	SEGMENT PARA USE32 PUBLIC 'CODE'
_TEXT	ENDS
;	COMDAT __imp_??6FArchive@@UAEAAV0@AAVFName@@@Z
_TEXT	SEGMENT PARA USE32 PUBLIC 'CODE'
_TEXT	ENDS
;	COMDAT __imp_??6FArchive@@UAEAAV0@AAPAVUObject@@@Z
_TEXT	SEGMENT PARA USE32 PUBLIC 'CODE'
_TEXT	ENDS
;	COMDAT __imp_?MapName@FArchive@@UAEHPAVFName@@@Z
_TEXT	SEGMENT PARA USE32 PUBLIC 'CODE'
_TEXT	ENDS
;	COMDAT __imp_?MapObject@FArchive@@UAEHPAVUObject@@@Z
_TEXT	SEGMENT PARA USE32 PUBLIC 'CODE'
_TEXT	ENDS
;	COMDAT __imp_?TotalSize@FArchive@@UAEHXZ
_TEXT	SEGMENT PARA USE32 PUBLIC 'CODE'
_TEXT	ENDS
;	COMDAT __imp_?AtEnd@FArchive@@UAEHXZ
_TEXT	SEGMENT PARA USE32 PUBLIC 'CODE'
_TEXT	ENDS
;	COMDAT __imp_?AttachLazyLoader@FArchive@@UAEXPAVFLazyLoader@@@Z
_TEXT	SEGMENT PARA USE32 PUBLIC 'CODE'
_TEXT	ENDS
;	COMDAT __imp_?DetachLazyLoader@FArchive@@UAEXPAVFLazyLoader@@@Z
_TEXT	SEGMENT PARA USE32 PUBLIC 'CODE'
_TEXT	ENDS
;	COMDAT __imp_?Precache@FArchive@@UAEXH@Z
_TEXT	SEGMENT PARA USE32 PUBLIC 'CODE'
_TEXT	ENDS
;	COMDAT __imp_?Flush@FArchive@@UAEXXZ
_TEXT	SEGMENT PARA USE32 PUBLIC 'CODE'
_TEXT	ENDS
;	COMDAT __imp_?Close@FArchive@@UAEHXZ
_TEXT	SEGMENT PARA USE32 PUBLIC 'CODE'
_TEXT	ENDS
;	COMDAT __imp_?GetError@FArchive@@UAEHXZ
_TEXT	SEGMENT PARA USE32 PUBLIC 'CODE'
_TEXT	ENDS
;	COMDAT __imp_?ByteOrderSerialize@FArchive@@QAEAAV1@PAXH@Z
_TEXT	SEGMENT PARA USE32 PUBLIC 'CODE'
_TEXT	ENDS
;	COMDAT __imp_??0FArchive@@QAE@XZ
_TEXT	SEGMENT PARA USE32 PUBLIC 'CODE'
_TEXT	ENDS
;	COMDAT __imp_?Ver@FArchive@@QAEHXZ
_TEXT	SEGMENT PARA USE32 PUBLIC 'CODE'
_TEXT	ENDS
;	COMDAT __imp_?IsLoading@FArchive@@QAEHXZ
_TEXT	SEGMENT PARA USE32 PUBLIC 'CODE'
_TEXT	ENDS
;	COMDAT __imp_?IsSaving@FArchive@@QAEHXZ
_TEXT	SEGMENT PARA USE32 PUBLIC 'CODE'
_TEXT	ENDS
;	COMDAT __imp_?IsTrans@FArchive@@QAEHXZ
_TEXT	SEGMENT PARA USE32 PUBLIC 'CODE'
_TEXT	ENDS
;	COMDAT __imp_?IsPersistent@FArchive@@QAEHXZ
_TEXT	SEGMENT PARA USE32 PUBLIC 'CODE'
_TEXT	ENDS
;	COMDAT ??6@YAAAVFArchive@@AAV0@AAE@Z
_TEXT	SEGMENT PARA USE32 PUBLIC 'CODE'
_TEXT	ENDS
;	COMDAT ??6@YAAAVFArchive@@AAV0@AAG@Z
_TEXT	SEGMENT PARA USE32 PUBLIC 'CODE'
_TEXT	ENDS
;	COMDAT ??6@YAAAVFArchive@@AAV0@AAK@Z
_TEXT	SEGMENT PARA USE32 PUBLIC 'CODE'
_TEXT	ENDS
;	COMDAT ??6@YAAAVFArchive@@AAV0@AAH@Z
_TEXT	SEGMENT PARA USE32 PUBLIC 'CODE'
_TEXT	ENDS
;	COMDAT ??6@YAAAVFArchive@@AAV0@AAM@Z
_TEXT	SEGMENT PARA USE32 PUBLIC 'CODE'
_TEXT	ENDS
;	COMDAT ??6@YAAAVFArchive@@AAV0@AAN@Z
_TEXT	SEGMENT PARA USE32 PUBLIC 'CODE'
_TEXT	ENDS
;	COMDAT ??6@YAAAVFArchive@@AAV0@AA_K@Z
_TEXT	SEGMENT PARA USE32 PUBLIC 'CODE'
_TEXT	ENDS
;	COMDAT ?NeedsDestructor@?$TTypeInfo@E@@SAHXZ
_TEXT	SEGMENT PARA USE32 PUBLIC 'CODE'
_TEXT	ENDS
;	COMDAT ?NeedsDestructor@?$TTypeInfo@H@@SAHXZ
_TEXT	SEGMENT PARA USE32 PUBLIC 'CODE'
_TEXT	ENDS
;	COMDAT ?NeedsDestructor@?$TTypeInfo@G@@SAHXZ
_TEXT	SEGMENT PARA USE32 PUBLIC 'CODE'
_TEXT	ENDS
;	COMDAT ?NeedsDestructor@?$TTypeInfo@VFName@@@@SAHXZ
_TEXT	SEGMENT PARA USE32 PUBLIC 'CODE'
_TEXT	ENDS
;	COMDAT __imp_?GetData@FArray@@QAEPAXXZ
_TEXT	SEGMENT PARA USE32 PUBLIC 'CODE'
_TEXT	ENDS
;	COMDAT __imp_?Num@FArray@@QBEHXZ
_TEXT	SEGMENT PARA USE32 PUBLIC 'CODE'
_TEXT	ENDS
;	COMDAT __imp_?Insert@FArray@@QAEXHHH@Z
_TEXT	SEGMENT PARA USE32 PUBLIC 'CODE'
_TEXT	ENDS
;	COMDAT __imp_?Add@FArray@@QAEHHH@Z
_TEXT	SEGMENT PARA USE32 PUBLIC 'CODE'
_TEXT	ENDS
;	COMDAT __imp_?AddZeroed@FArray@@QAEHHH@Z
_TEXT	SEGMENT PARA USE32 PUBLIC 'CODE'
_TEXT	ENDS
;	COMDAT __imp_?Shrink@FArray@@QAEXH@Z
_TEXT	SEGMENT PARA USE32 PUBLIC 'CODE'
_TEXT	ENDS
;	COMDAT __imp_?Empty@FArray@@QAEXHH@Z
_TEXT	SEGMENT PARA USE32 PUBLIC 'CODE'
_TEXT	ENDS
;	COMDAT __imp_?Clear@FArray@@QAEXXZ
_TEXT	SEGMENT PARA USE32 PUBLIC 'CODE'
_TEXT	ENDS
;	COMDAT __imp_??0FArray@@QAE@XZ
_TEXT	SEGMENT PARA USE32 PUBLIC 'CODE'
_TEXT	ENDS
;	COMDAT __imp_??0FArray@@QAE@W4ENoInit@@@Z
_TEXT	SEGMENT PARA USE32 PUBLIC 'CODE'
_TEXT	ENDS
;	COMDAT __imp_??1FArray@@QAE@XZ
_TEXT	SEGMENT PARA USE32 PUBLIC 'CODE'
_TEXT	ENDS
;	COMDAT __imp_?CountBytes@FArray@@QAEXAAVFArchive@@H@Z
_TEXT	SEGMENT PARA USE32 PUBLIC 'CODE'
_TEXT	ENDS
;	COMDAT __imp_??0FArray@@IAE@HH@Z
_TEXT	SEGMENT PARA USE32 PUBLIC 'CODE'
_TEXT	ENDS
;	COMDAT ??0FLazyLoader@@QAE@XZ
_TEXT	SEGMENT PARA USE32 PUBLIC 'CODE'
_TEXT	ENDS
;	COMDAT __imp_??0FString@@QAE@XZ
_TEXT	SEGMENT PARA USE32 PUBLIC 'CODE'
_TEXT	ENDS
;	COMDAT __imp_??0FString@@QAE@ABV0@@Z
_TEXT	SEGMENT PARA USE32 PUBLIC 'CODE'
_TEXT	ENDS
;	COMDAT __imp_??0FString@@QAE@PBG@Z
_TEXT	SEGMENT PARA USE32 PUBLIC 'CODE'
_TEXT	ENDS
;	COMDAT __imp_??0FString@@QAE@W4ENoInit@@@Z
_TEXT	SEGMENT PARA USE32 PUBLIC 'CODE'
_TEXT	ENDS
;	COMDAT __imp_??4FString@@QAEAAV0@PBG@Z
_TEXT	SEGMENT PARA USE32 PUBLIC 'CODE'
_TEXT	ENDS
;	COMDAT __imp_??4FString@@QAEAAV0@ABV0@@Z
_TEXT	SEGMENT PARA USE32 PUBLIC 'CODE'
_TEXT	ENDS
;	COMDAT __imp_??1FString@@QAE@XZ
_TEXT	SEGMENT PARA USE32 PUBLIC 'CODE'
_TEXT	ENDS
;	COMDAT __imp_??DFString@@QBEPBGXZ
_TEXT	SEGMENT PARA USE32 PUBLIC 'CODE'
_TEXT	ENDS
;	COMDAT __imp_??YFString@@QAEAAV0@PBG@Z
_TEXT	SEGMENT PARA USE32 PUBLIC 'CODE'
_TEXT	ENDS
;	COMDAT __imp_??HFString@@QAE?AV0@PBG@Z
_TEXT	SEGMENT PARA USE32 PUBLIC 'CODE'
_TEXT	ENDS
;	COMDAT __imp_??XFString@@QAEAAV0@PBG@Z
_TEXT	SEGMENT PARA USE32 PUBLIC 'CODE'
_TEXT	ENDS
;	COMDAT __imp_??DFString@@QBE?AV0@PBG@Z
_TEXT	SEGMENT PARA USE32 PUBLIC 'CODE'
_TEXT	ENDS
;	COMDAT __imp_?Len@FString@@QBEHXZ
_TEXT	SEGMENT PARA USE32 PUBLIC 'CODE'
_TEXT	ENDS
;	COMDAT __imp_?Left@FString@@QBE?AV1@H@Z
_TEXT	SEGMENT PARA USE32 PUBLIC 'CODE'
_TEXT	ENDS
;	COMDAT __imp_?Mid@FString@@QBE?AV1@HH@Z
_TEXT	SEGMENT PARA USE32 PUBLIC 'CODE'
_TEXT	ENDS
;	COMDAT __imp_?InStr@FString@@QBEHPBGH@Z
_TEXT	SEGMENT PARA USE32 PUBLIC 'CODE'
_TEXT	ENDS
;	COMDAT __imp_?InStr@FString@@QBEHABV1@H@Z
_TEXT	SEGMENT PARA USE32 PUBLIC 'CODE'
_TEXT	ENDS
;	COMDAT __imp_??0FString@@AAE@HPBG@Z
_TEXT	SEGMENT PARA USE32 PUBLIC 'CODE'
_TEXT	ENDS
;	COMDAT __imp_??0FStringNoInit@@QAE@XZ
_TEXT	SEGMENT PARA USE32 PUBLIC 'CODE'
_TEXT	ENDS
;	COMDAT __imp_??4FStringNoInit@@QAEAAU0@PBG@Z
_TEXT	SEGMENT PARA USE32 PUBLIC 'CODE'
_TEXT	ENDS
;	COMDAT ?GetTypeHash@@YAKABVFString@@@Z
_TEXT	SEGMENT PARA USE32 PUBLIC 'CODE'
_TEXT	ENDS
;	COMDAT ?Serialize@FStringOutputDevice@@UAEXPBGW4EName@@@Z
_TEXT	SEGMENT PARA USE32 PUBLIC 'CODE'
_TEXT	ENDS
;	COMDAT __imp_??0FOutputDevice@@QAE@XZ
_TEXT	SEGMENT PARA USE32 PUBLIC 'CODE'
_TEXT	ENDS
;	COMDAT ??0FBufferWriter@@QAE@AAV?$TArray@E@@@Z
_TEXT	SEGMENT PARA USE32 PUBLIC 'CODE'
_TEXT	ENDS
;	COMDAT ?Serialize@FBufferWriter@@UAEXPAXH@Z
_TEXT	SEGMENT PARA USE32 PUBLIC 'CODE'
_TEXT	ENDS
;	COMDAT ?Tell@FBufferWriter@@UAEHXZ
_TEXT	SEGMENT PARA USE32 PUBLIC 'CODE'
_TEXT	ENDS
;	COMDAT ?Seek@FBufferWriter@@UAEXH@Z
_TEXT	SEGMENT PARA USE32 PUBLIC 'CODE'
_TEXT	ENDS
;	COMDAT ?TotalSize@FBufferWriter@@UAEHXZ
_TEXT	SEGMENT PARA USE32 PUBLIC 'CODE'
_TEXT	ENDS
;	COMDAT ??_GFBufferWriter@@UAEPAXI@Z
_TEXT	SEGMENT PARA USE32 PUBLIC 'CODE'
_TEXT	ENDS
;	COMDAT ??1FBufferWriter@@UAE@XZ
_TEXT	SEGMENT PARA USE32 PUBLIC 'CODE'
_TEXT	ENDS
;	COMDAT ??_GFBufferArchive@@UAEPAXI@Z
_TEXT	SEGMENT PARA USE32 PUBLIC 'CODE'
_TEXT	ENDS
;	COMDAT ??1FBufferArchive@@UAE@XZ
_TEXT	SEGMENT PARA USE32 PUBLIC 'CODE'
_TEXT	ENDS
;	COMDAT __imp_??1FBufferReader@@UAE@XZ
_TEXT	SEGMENT PARA USE32 PUBLIC 'CODE'
_TEXT	ENDS
;	COMDAT __imp_??0FRainbowPtr@@QAE@PAX@Z
_TEXT	SEGMENT PARA USE32 PUBLIC 'CODE'
_TEXT	ENDS
;	COMDAT __imp_??DFName@@QBEPBGXZ
_TEXT	SEGMENT PARA USE32 PUBLIC 'CODE'
_TEXT	ENDS
;	COMDAT __imp_?GetIndex@FName@@QBEHXZ
_TEXT	SEGMENT PARA USE32 PUBLIC 'CODE'
_TEXT	ENDS
;	COMDAT __imp_??0FName@@QAE@W4EName@@@Z
_TEXT	SEGMENT PARA USE32 PUBLIC 'CODE'
_TEXT	ENDS
;	COMDAT __imp_??0FName@@QAE@XZ
_TEXT	SEGMENT PARA USE32 PUBLIC 'CODE'
_TEXT	ENDS
;	COMDAT ?GetTypeHash@@YAKVFName@@@Z
_TEXT	SEGMENT PARA USE32 PUBLIC 'CODE'
_TEXT	ENDS
;	COMDAT __imp_??1FFrame@@QAE@XZ
_TEXT	SEGMENT PARA USE32 PUBLIC 'CODE'
_TEXT	ENDS
;	COMDAT ??0FIteratorList@@QAE@XZ
_TEXT	SEGMENT PARA USE32 PUBLIC 'CODE'
_TEXT	ENDS
;	COMDAT ??0FIteratorList@@QAE@PAU0@@Z
_TEXT	SEGMENT PARA USE32 PUBLIC 'CODE'
_TEXT	ENDS
;	COMDAT __imp_??0FGuid@@QAE@XZ
_TEXT	SEGMENT PARA USE32 PUBLIC 'CODE'
_TEXT	ENDS
;	COMDAT __imp_??0FGuid@@QAE@KKKK@Z
_TEXT	SEGMENT PARA USE32 PUBLIC 'CODE'
_TEXT	ENDS
;	COMDAT ??6@YAAAVFArchive@@AAV0@AAVFGuid@@@Z
_TEXT	SEGMENT PARA USE32 PUBLIC 'CODE'
_TEXT	ENDS
;	COMDAT __imp_?StaticClass@UObject@@SAPAVUClass@@XZ
_TEXT	SEGMENT PARA USE32 PUBLIC 'CODE'
_TEXT	ENDS
;	COMDAT __imp_??2UObject@@SAPAXIPAW4EInternal@@@Z
_TEXT	SEGMENT PARA USE32 PUBLIC 'CODE'
_TEXT	ENDS
;	COMDAT __imp_?StaticConfigName@UObject@@SAPBGXZ
_TEXT	SEGMENT PARA USE32 PUBLIC 'CODE'
_TEXT	ENDS
;	COMDAT __imp_??3UObject@@SAXPAXI@Z
_TEXT	SEGMENT PARA USE32 PUBLIC 'CODE'
_TEXT	ENDS
;	COMDAT __imp_?IsPendingKill@UObject@@UAEHXZ
_TEXT	SEGMENT PARA USE32 PUBLIC 'CODE'
_TEXT	ENDS
;	COMDAT __imp_?GetClass@UObject@@QBEPAVUClass@@XZ
_TEXT	SEGMENT PARA USE32 PUBLIC 'CODE'
_TEXT	ENDS
;	COMDAT __imp_?GetFlags@UObject@@QBEKXZ
_TEXT	SEGMENT PARA USE32 PUBLIC 'CODE'
_TEXT	ENDS
;	COMDAT __imp_?GetName@UObject@@UBEPBGXZ
_TEXT	SEGMENT PARA USE32 PUBLIC 'CODE'
_TEXT	ENDS
;	COMDAT __imp_?GetFName@UObject@@QBE?BVFName@@XZ
_TEXT	SEGMENT PARA USE32 PUBLIC 'CODE'
_TEXT	ENDS
;	COMDAT __imp_?GetOuter@UObject@@QBEPAV1@XZ
_TEXT	SEGMENT PARA USE32 PUBLIC 'CODE'
_TEXT	ENDS
;	COMDAT __imp_?GetIndex@UObject@@QBEKXZ
_TEXT	SEGMENT PARA USE32 PUBLIC 'CODE'
_TEXT	ENDS
;	COMDAT ??_GUObject@@UAEPAXI@Z
_TEXT	SEGMENT PARA USE32 PUBLIC 'CODE'
_TEXT	ENDS
;	COMDAT ?GetTypeHash@@YAKPBVUObject@@@Z
_TEXT	SEGMENT PARA USE32 PUBLIC 'CODE'
_TEXT	ENDS
;	COMDAT ??EFObjectIterator@@QAEXXZ
_TEXT	SEGMENT PARA USE32 PUBLIC 'CODE'
_TEXT	ENDS
;	COMDAT __imp_?StaticClass@UPackageMap@@SAPAVUClass@@XZ
_TEXT	SEGMENT PARA USE32 PUBLIC 'CODE'
_TEXT	ENDS
;	COMDAT __imp_??2UPackageMap@@SAPAXIPAW4EInternal@@@Z
_TEXT	SEGMENT PARA USE32 PUBLIC 'CODE'
_TEXT	ENDS
;	COMDAT __imp_??1UPackageMap@@UAE@XZ
_TEXT	SEGMENT PARA USE32 PUBLIC 'CODE'
_TEXT	ENDS
;	COMDAT __imp_?GetMaxObjectIndex@UPackageMap@@UAEHXZ
_TEXT	SEGMENT PARA USE32 PUBLIC 'CODE'
_TEXT	ENDS
;	COMDAT ??_GUPackageMap@@UAEPAXI@Z
_TEXT	SEGMENT PARA USE32 PUBLIC 'CODE'
_TEXT	ENDS
;	COMDAT ??1?$TMap@PAVUObject@@H@@QAE@XZ
_TEXT	SEGMENT PARA USE32 PUBLIC 'CODE'
_TEXT	ENDS
;	COMDAT ??1?$TMap@PAVUObject@@PAVFClassNetCache@@@@QAE@XZ
_TEXT	SEGMENT PARA USE32 PUBLIC 'CODE'
_TEXT	ENDS
;	COMDAT __imp_??0UPackageMap@@QAE@XZ
_TEXT	SEGMENT PARA USE32 PUBLIC 'CODE'
_TEXT	ENDS
;	COMDAT ??0?$TMap@PAVUObject@@H@@QAE@XZ
_TEXT	SEGMENT PARA USE32 PUBLIC 'CODE'
_TEXT	ENDS
;	COMDAT ??0?$TMap@PAVUObject@@PAVFClassNetCache@@@@QAE@XZ
_TEXT	SEGMENT PARA USE32 PUBLIC 'CODE'
_TEXT	ENDS
;	COMDAT __imp_?StaticClass@UPackage@@SAPAVUClass@@XZ
_TEXT	SEGMENT PARA USE32 PUBLIC 'CODE'
_TEXT	ENDS
;	COMDAT __imp_??2UPackage@@SAPAXIPAW4EInternal@@@Z
_TEXT	SEGMENT PARA USE32 PUBLIC 'CODE'
_TEXT	ENDS
;	COMDAT __imp_??1UPackage@@UAE@XZ
_TEXT	SEGMENT PARA USE32 PUBLIC 'CODE'
_TEXT	ENDS
;	COMDAT ??_GUPackage@@UAEPAXI@Z
_TEXT	SEGMENT PARA USE32 PUBLIC 'CODE'
_TEXT	ENDS
;	COMDAT __imp_?StaticClass@USubsystem@@SAPAVUClass@@XZ
_TEXT	SEGMENT PARA USE32 PUBLIC 'CODE'
_TEXT	ENDS
;	COMDAT __imp_??1USubsystem@@UAE@XZ
_TEXT	SEGMENT PARA USE32 PUBLIC 'CODE'
_TEXT	ENDS
;	COMDAT __imp_??0USubsystem@@IAE@XZ
_TEXT	SEGMENT PARA USE32 PUBLIC 'CODE'
_TEXT	ENDS
;	COMDAT __imp_?Tick@USubsystem@@UAIXM@Z
_TEXT	SEGMENT PARA USE32 PUBLIC 'CODE'
_TEXT	ENDS
;	COMDAT __imp_??0FExec@@QAE@XZ
_TEXT	SEGMENT PARA USE32 PUBLIC 'CODE'
_TEXT	ENDS
;	COMDAT __imp_?StaticClass@UCommandlet@@SAPAVUClass@@XZ
_TEXT	SEGMENT PARA USE32 PUBLIC 'CODE'
_TEXT	ENDS
;	COMDAT __imp_??2UCommandlet@@SAPAXIPAW4EInternal@@@Z
_TEXT	SEGMENT PARA USE32 PUBLIC 'CODE'
_TEXT	ENDS
;	COMDAT __imp_??1UCommandlet@@UAE@XZ
_TEXT	SEGMENT PARA USE32 PUBLIC 'CODE'
_TEXT	ENDS
;	COMDAT ??_GUCommandlet@@UAEPAXI@Z
_TEXT	SEGMENT PARA USE32 PUBLIC 'CODE'
_TEXT	ENDS
;	COMDAT __imp_??1FStringNoInit@@QAE@XZ
_TEXT	SEGMENT PARA USE32 PUBLIC 'CODE'
_TEXT	ENDS
;	COMDAT ??0UCommandlet_eventMain_Parms@@QAE@XZ
_TEXT	SEGMENT PARA USE32 PUBLIC 'CODE'
_TEXT	ENDS
;	COMDAT ??1UCommandlet_eventMain_Parms@@QAE@XZ
_TEXT	SEGMENT PARA USE32 PUBLIC 'CODE'
_TEXT	ENDS
;	COMDAT __imp_?StaticClass@ULanguage@@SAPAVUClass@@XZ
_TEXT	SEGMENT PARA USE32 PUBLIC 'CODE'
_TEXT	ENDS
;	COMDAT __imp_??1ULanguage@@UAE@XZ
_TEXT	SEGMENT PARA USE32 PUBLIC 'CODE'
_TEXT	ENDS
;	COMDAT __imp_?StaticClass@UTextBuffer@@SAPAVUClass@@XZ
_TEXT	SEGMENT PARA USE32 PUBLIC 'CODE'
_TEXT	ENDS
;	COMDAT __imp_??2UTextBuffer@@SAPAXIPAW4EInternal@@@Z
_TEXT	SEGMENT PARA USE32 PUBLIC 'CODE'
_TEXT	ENDS
;	COMDAT __imp_??1UTextBuffer@@UAE@XZ
_TEXT	SEGMENT PARA USE32 PUBLIC 'CODE'
_TEXT	ENDS
;	COMDAT ??_GUTextBuffer@@UAEPAXI@Z
_TEXT	SEGMENT PARA USE32 PUBLIC 'CODE'
_TEXT	ENDS
;	COMDAT __imp_?StaticClass@USystem@@SAPAVUClass@@XZ
_TEXT	SEGMENT PARA USE32 PUBLIC 'CODE'
_TEXT	ENDS
;	COMDAT __imp_??2USystem@@SAPAXIPAW4EInternal@@@Z
_TEXT	SEGMENT PARA USE32 PUBLIC 'CODE'
_TEXT	ENDS
;	COMDAT __imp_??1USystem@@UAE@XZ
_TEXT	SEGMENT PARA USE32 PUBLIC 'CODE'
_TEXT	ENDS
;	COMDAT ??_GUSystem@@UAEPAXI@Z
_TEXT	SEGMENT PARA USE32 PUBLIC 'CODE'
_TEXT	ENDS
;	COMDAT __imp_?StaticClass@UField@@SAPAVUClass@@XZ
_TEXT	SEGMENT PARA USE32 PUBLIC 'CODE'
_TEXT	ENDS
;	COMDAT __imp_??1UField@@UAE@XZ
_TEXT	SEGMENT PARA USE32 PUBLIC 'CODE'
_TEXT	ENDS
;	COMDAT __imp_??0UField@@IAE@XZ
_TEXT	SEGMENT PARA USE32 PUBLIC 'CODE'
_TEXT	ENDS
;	COMDAT __imp_?StaticClass@UStruct@@SAPAVUClass@@XZ
_TEXT	SEGMENT PARA USE32 PUBLIC 'CODE'
_TEXT	ENDS
;	COMDAT __imp_??2UStruct@@SAPAXIPAW4EInternal@@@Z
_TEXT	SEGMENT PARA USE32 PUBLIC 'CODE'
_TEXT	ENDS
;	COMDAT __imp_??1UStruct@@UAE@XZ
_TEXT	SEGMENT PARA USE32 PUBLIC 'CODE'
_TEXT	ENDS
;	COMDAT __imp_??0UStruct@@IAE@XZ
_TEXT	SEGMENT PARA USE32 PUBLIC 'CODE'
_TEXT	ENDS
;	COMDAT __imp_?GetInheritanceSuper@UStruct@@UAEPAV1@XZ
_TEXT	SEGMENT PARA USE32 PUBLIC 'CODE'
_TEXT	ENDS
;	COMDAT __imp_?GetPropertiesSize@UStruct@@UAEHXZ
_TEXT	SEGMENT PARA USE32 PUBLIC 'CODE'
_TEXT	ENDS
;	COMDAT __imp_?GetNameCPP@UStruct@@UAEPAGXZ
_TEXT	SEGMENT PARA USE32 PUBLIC 'CODE'
_TEXT	ENDS
;	COMDAT __imp_?GetSuperStruct@UStruct@@QBEPAV1@XZ
_TEXT	SEGMENT PARA USE32 PUBLIC 'CODE'
_TEXT	ENDS
;	COMDAT ??_GUStruct@@UAEPAXI@Z
_TEXT	SEGMENT PARA USE32 PUBLIC 'CODE'
_TEXT	ENDS
;	COMDAT __imp_?StaticClass@UFunction@@SAPAVUClass@@XZ
_TEXT	SEGMENT PARA USE32 PUBLIC 'CODE'
_TEXT	ENDS
;	COMDAT __imp_??2UFunction@@SAPAXIPAW4EInternal@@@Z
_TEXT	SEGMENT PARA USE32 PUBLIC 'CODE'
_TEXT	ENDS
;	COMDAT __imp_??1UFunction@@UAE@XZ
_TEXT	SEGMENT PARA USE32 PUBLIC 'CODE'
_TEXT	ENDS
;	COMDAT __imp_??0UFunction@@IAE@XZ
_TEXT	SEGMENT PARA USE32 PUBLIC 'CODE'
_TEXT	ENDS
;	COMDAT __imp_?MergeBools@UFunction@@UAEHXZ
_TEXT	SEGMENT PARA USE32 PUBLIC 'CODE'
_TEXT	ENDS
;	COMDAT __imp_?GetInheritanceSuper@UFunction@@UAEPAVUStruct@@XZ
_TEXT	SEGMENT PARA USE32 PUBLIC 'CODE'
_TEXT	ENDS
;	COMDAT ??_GUFunction@@UAEPAXI@Z
_TEXT	SEGMENT PARA USE32 PUBLIC 'CODE'
_TEXT	ENDS
;	COMDAT __imp_?StaticClass@UState@@SAPAVUClass@@XZ
_TEXT	SEGMENT PARA USE32 PUBLIC 'CODE'
_TEXT	ENDS
;	COMDAT __imp_??2UState@@SAPAXIPAW4EInternal@@@Z
_TEXT	SEGMENT PARA USE32 PUBLIC 'CODE'
_TEXT	ENDS
;	COMDAT __imp_??1UState@@UAE@XZ
_TEXT	SEGMENT PARA USE32 PUBLIC 'CODE'
_TEXT	ENDS
;	COMDAT __imp_??0UState@@IAE@XZ
_TEXT	SEGMENT PARA USE32 PUBLIC 'CODE'
_TEXT	ENDS
;	COMDAT __imp_?MergeBools@UState@@UAEHXZ
_TEXT	SEGMENT PARA USE32 PUBLIC 'CODE'
_TEXT	ENDS
;	COMDAT __imp_?GetInheritanceSuper@UState@@UAEPAVUStruct@@XZ
_TEXT	SEGMENT PARA USE32 PUBLIC 'CODE'
_TEXT	ENDS
;	COMDAT __imp_?GetSuperState@UState@@QBEPAV1@XZ
_TEXT	SEGMENT PARA USE32 PUBLIC 'CODE'
_TEXT	ENDS
;	COMDAT ??_GUState@@UAEPAXI@Z
_TEXT	SEGMENT PARA USE32 PUBLIC 'CODE'
_TEXT	ENDS
;	COMDAT __imp_?StaticClass@UEnum@@SAPAVUClass@@XZ
_TEXT	SEGMENT PARA USE32 PUBLIC 'CODE'
_TEXT	ENDS
;	COMDAT __imp_??2UEnum@@SAPAXIPAW4EInternal@@@Z
_TEXT	SEGMENT PARA USE32 PUBLIC 'CODE'
_TEXT	ENDS
;	COMDAT __imp_??1UEnum@@UAE@XZ
_TEXT	SEGMENT PARA USE32 PUBLIC 'CODE'
_TEXT	ENDS
;	COMDAT __imp_??0UEnum@@IAE@XZ
_TEXT	SEGMENT PARA USE32 PUBLIC 'CODE'
_TEXT	ENDS
;	COMDAT ??_GUEnum@@UAEPAXI@Z
_TEXT	SEGMENT PARA USE32 PUBLIC 'CODE'
_TEXT	ENDS
;	COMDAT __imp_?StaticClass@UClass@@SAPAV1@XZ
_TEXT	SEGMENT PARA USE32 PUBLIC 'CODE'
_TEXT	ENDS
;	COMDAT __imp_??2UClass@@SAPAXIPAW4EInternal@@@Z
_TEXT	SEGMENT PARA USE32 PUBLIC 'CODE'
_TEXT	ENDS
;	COMDAT __imp_??1UClass@@UAE@XZ
_TEXT	SEGMENT PARA USE32 PUBLIC 'CODE'
_TEXT	ENDS
;	COMDAT __imp_?MergeBools@UClass@@UAEHXZ
_TEXT	SEGMENT PARA USE32 PUBLIC 'CODE'
_TEXT	ENDS
;	COMDAT __imp_?GetInheritanceSuper@UClass@@UAEPAVUStruct@@XZ
_TEXT	SEGMENT PARA USE32 PUBLIC 'CODE'
_TEXT	ENDS
;	COMDAT __imp_?GetNameCPP@UClass@@UAEPAGXZ
_TEXT	SEGMENT PARA USE32 PUBLIC 'CODE'
_TEXT	ENDS
;	COMDAT __imp_?GetSuperClass@UClass@@QBEPAV1@XZ
_TEXT	SEGMENT PARA USE32 PUBLIC 'CODE'
_TEXT	ENDS
;	COMDAT __imp_?GetDefaultActor@UClass@@QAEPAVAActor@@XZ
_TEXT	SEGMENT PARA USE32 PUBLIC 'CODE'
_TEXT	ENDS
;	COMDAT ??_GUClass@@UAEPAXI@Z
_TEXT	SEGMENT PARA USE32 PUBLIC 'CODE'
_TEXT	ENDS
;	COMDAT __imp_?StaticClass@UConst@@SAPAVUClass@@XZ
_TEXT	SEGMENT PARA USE32 PUBLIC 'CODE'
_TEXT	ENDS
;	COMDAT __imp_??2UConst@@SAPAXIPAW4EInternal@@@Z
_TEXT	SEGMENT PARA USE32 PUBLIC 'CODE'
_TEXT	ENDS
;	COMDAT __imp_??1UConst@@UAE@XZ
_TEXT	SEGMENT PARA USE32 PUBLIC 'CODE'
_TEXT	ENDS
;	COMDAT __imp_??0UConst@@IAE@XZ
_TEXT	SEGMENT PARA USE32 PUBLIC 'CODE'
_TEXT	ENDS
;	COMDAT ??_GUConst@@UAEPAXI@Z
_TEXT	SEGMENT PARA USE32 PUBLIC 'CODE'
_TEXT	ENDS
;	COMDAT __imp_?StaticClass@UProperty@@SAPAVUClass@@XZ
_TEXT	SEGMENT PARA USE32 PUBLIC 'CODE'
_TEXT	ENDS
;	COMDAT __imp_??1UProperty@@UAE@XZ
_TEXT	SEGMENT PARA USE32 PUBLIC 'CODE'
_TEXT	ENDS
;	COMDAT __imp_?Matches@UProperty@@QBEHPBX0H@Z
_TEXT	SEGMENT PARA USE32 PUBLIC 'CODE'
_TEXT	ENDS
;	COMDAT __imp_?StaticClass@UByteProperty@@SAPAVUClass@@XZ
_TEXT	SEGMENT PARA USE32 PUBLIC 'CODE'
_TEXT	ENDS
;	COMDAT __imp_??2UByteProperty@@SAPAXIPAW4EInternal@@@Z
_TEXT	SEGMENT PARA USE32 PUBLIC 'CODE'
_TEXT	ENDS
;	COMDAT __imp_??1UByteProperty@@UAE@XZ
_TEXT	SEGMENT PARA USE32 PUBLIC 'CODE'
_TEXT	ENDS
;	COMDAT __imp_??0UByteProperty@@QAE@XZ
_TEXT	SEGMENT PARA USE32 PUBLIC 'CODE'
_TEXT	ENDS
;	COMDAT ??_GUByteProperty@@UAEPAXI@Z
_TEXT	SEGMENT PARA USE32 PUBLIC 'CODE'
_TEXT	ENDS
;	COMDAT __imp_?StaticClass@UIntProperty@@SAPAVUClass@@XZ
_TEXT	SEGMENT PARA USE32 PUBLIC 'CODE'
_TEXT	ENDS
;	COMDAT __imp_??2UIntProperty@@SAPAXIPAW4EInternal@@@Z
_TEXT	SEGMENT PARA USE32 PUBLIC 'CODE'
_TEXT	ENDS
;	COMDAT __imp_??1UIntProperty@@UAE@XZ
_TEXT	SEGMENT PARA USE32 PUBLIC 'CODE'
_TEXT	ENDS
;	COMDAT __imp_??0UIntProperty@@QAE@XZ
_TEXT	SEGMENT PARA USE32 PUBLIC 'CODE'
_TEXT	ENDS
;	COMDAT ??_GUIntProperty@@UAEPAXI@Z
_TEXT	SEGMENT PARA USE32 PUBLIC 'CODE'
_TEXT	ENDS
;	COMDAT __imp_?StaticClass@UBoolProperty@@SAPAVUClass@@XZ
_TEXT	SEGMENT PARA USE32 PUBLIC 'CODE'
_TEXT	ENDS
;	COMDAT __imp_??2UBoolProperty@@SAPAXIPAVUObject@@VFName@@K@Z
_TEXT	SEGMENT PARA USE32 PUBLIC 'CODE'
_TEXT	ENDS
;	COMDAT __imp_??2UBoolProperty@@SAPAXIPAW4EInternal@@@Z
_TEXT	SEGMENT PARA USE32 PUBLIC 'CODE'
_TEXT	ENDS
;	COMDAT __imp_??1UBoolProperty@@UAE@XZ
_TEXT	SEGMENT PARA USE32 PUBLIC 'CODE'
_TEXT	ENDS
;	COMDAT __imp_??0UBoolProperty@@QAE@XZ
_TEXT	SEGMENT PARA USE32 PUBLIC 'CODE'
_TEXT	ENDS
;	COMDAT __imp_??0UBoolProperty@@QAE@W4ECppProperty@@HPBGK@Z
_TEXT	SEGMENT PARA USE32 PUBLIC 'CODE'
_TEXT	ENDS
;	COMDAT ??_GUBoolProperty@@UAEPAXI@Z
_TEXT	SEGMENT PARA USE32 PUBLIC 'CODE'
_TEXT	ENDS
;	COMDAT __imp_?StaticClass@UFloatProperty@@SAPAVUClass@@XZ
_TEXT	SEGMENT PARA USE32 PUBLIC 'CODE'
_TEXT	ENDS
;	COMDAT __imp_??2UFloatProperty@@SAPAXIPAW4EInternal@@@Z
_TEXT	SEGMENT PARA USE32 PUBLIC 'CODE'
_TEXT	ENDS
;	COMDAT __imp_??1UFloatProperty@@UAE@XZ
_TEXT	SEGMENT PARA USE32 PUBLIC 'CODE'
_TEXT	ENDS
;	COMDAT __imp_??0UFloatProperty@@QAE@XZ
_TEXT	SEGMENT PARA USE32 PUBLIC 'CODE'
_TEXT	ENDS
;	COMDAT ??_GUFloatProperty@@UAEPAXI@Z
_TEXT	SEGMENT PARA USE32 PUBLIC 'CODE'
_TEXT	ENDS
;	COMDAT __imp_?StaticClass@UObjectProperty@@SAPAVUClass@@XZ
_TEXT	SEGMENT PARA USE32 PUBLIC 'CODE'
_TEXT	ENDS
;	COMDAT __imp_??2UObjectProperty@@SAPAXIPAW4EInternal@@@Z
_TEXT	SEGMENT PARA USE32 PUBLIC 'CODE'
_TEXT	ENDS
;	COMDAT __imp_??1UObjectProperty@@UAE@XZ
_TEXT	SEGMENT PARA USE32 PUBLIC 'CODE'
_TEXT	ENDS
;	COMDAT __imp_??0UObjectProperty@@QAE@XZ
_TEXT	SEGMENT PARA USE32 PUBLIC 'CODE'
_TEXT	ENDS
;	COMDAT __imp_??0UObjectProperty@@QAE@W4ECppProperty@@HPBGKPAVUClass@@@Z
_TEXT	SEGMENT PARA USE32 PUBLIC 'CODE'
_TEXT	ENDS
;	COMDAT ??_GUObjectProperty@@UAEPAXI@Z
_TEXT	SEGMENT PARA USE32 PUBLIC 'CODE'
_TEXT	ENDS
;	COMDAT __imp_?StaticClass@UClassProperty@@SAPAVUClass@@XZ
_TEXT	SEGMENT PARA USE32 PUBLIC 'CODE'
_TEXT	ENDS
;	COMDAT __imp_??2UClassProperty@@SAPAXIPAW4EInternal@@@Z
_TEXT	SEGMENT PARA USE32 PUBLIC 'CODE'
_TEXT	ENDS
;	COMDAT __imp_??1UClassProperty@@UAE@XZ
_TEXT	SEGMENT PARA USE32 PUBLIC 'CODE'
_TEXT	ENDS
;	COMDAT __imp_??0UClassProperty@@QAE@XZ
_TEXT	SEGMENT PARA USE32 PUBLIC 'CODE'
_TEXT	ENDS
;	COMDAT __imp_?GetID@UClassProperty@@UBEEXZ
_TEXT	SEGMENT PARA USE32 PUBLIC 'CODE'
_TEXT	ENDS
;	COMDAT ??_GUClassProperty@@UAEPAXI@Z
_TEXT	SEGMENT PARA USE32 PUBLIC 'CODE'
_TEXT	ENDS
;	COMDAT __imp_?StaticClass@UNameProperty@@SAPAVUClass@@XZ
_TEXT	SEGMENT PARA USE32 PUBLIC 'CODE'
_TEXT	ENDS
;	COMDAT __imp_??2UNameProperty@@SAPAXIPAW4EInternal@@@Z
_TEXT	SEGMENT PARA USE32 PUBLIC 'CODE'
_TEXT	ENDS
;	COMDAT __imp_??1UNameProperty@@UAE@XZ
_TEXT	SEGMENT PARA USE32 PUBLIC 'CODE'
_TEXT	ENDS
;	COMDAT __imp_??0UNameProperty@@QAE@XZ
_TEXT	SEGMENT PARA USE32 PUBLIC 'CODE'
_TEXT	ENDS
;	COMDAT ??_GUNameProperty@@UAEPAXI@Z
_TEXT	SEGMENT PARA USE32 PUBLIC 'CODE'
_TEXT	ENDS
;	COMDAT __imp_?StaticClass@UStrProperty@@SAPAVUClass@@XZ
_TEXT	SEGMENT PARA USE32 PUBLIC 'CODE'
_TEXT	ENDS
;	COMDAT __imp_??2UStrProperty@@SAPAXIPAW4EInternal@@@Z
_TEXT	SEGMENT PARA USE32 PUBLIC 'CODE'
_TEXT	ENDS
;	COMDAT __imp_??1UStrProperty@@UAE@XZ
_TEXT	SEGMENT PARA USE32 PUBLIC 'CODE'
_TEXT	ENDS
;	COMDAT __imp_??0UStrProperty@@QAE@XZ
_TEXT	SEGMENT PARA USE32 PUBLIC 'CODE'
_TEXT	ENDS
;	COMDAT ??_GUStrProperty@@UAEPAXI@Z
_TEXT	SEGMENT PARA USE32 PUBLIC 'CODE'
_TEXT	ENDS
;	COMDAT __imp_?StaticClass@UFixedArrayProperty@@SAPAVUClass@@XZ
_TEXT	SEGMENT PARA USE32 PUBLIC 'CODE'
_TEXT	ENDS
;	COMDAT __imp_??2UFixedArrayProperty@@SAPAXIPAW4EInternal@@@Z
_TEXT	SEGMENT PARA USE32 PUBLIC 'CODE'
_TEXT	ENDS
;	COMDAT __imp_??1UFixedArrayProperty@@UAE@XZ
_TEXT	SEGMENT PARA USE32 PUBLIC 'CODE'
_TEXT	ENDS
;	COMDAT __imp_??0UFixedArrayProperty@@QAE@XZ
_TEXT	SEGMENT PARA USE32 PUBLIC 'CODE'
_TEXT	ENDS
;	COMDAT ??_GUFixedArrayProperty@@UAEPAXI@Z
_TEXT	SEGMENT PARA USE32 PUBLIC 'CODE'
_TEXT	ENDS
;	COMDAT __imp_?StaticClass@UArrayProperty@@SAPAVUClass@@XZ
_TEXT	SEGMENT PARA USE32 PUBLIC 'CODE'
_TEXT	ENDS
;	COMDAT __imp_??2UArrayProperty@@SAPAXIPAW4EInternal@@@Z
_TEXT	SEGMENT PARA USE32 PUBLIC 'CODE'
_TEXT	ENDS
;	COMDAT __imp_??1UArrayProperty@@UAE@XZ
_TEXT	SEGMENT PARA USE32 PUBLIC 'CODE'
_TEXT	ENDS
;	COMDAT __imp_??0UArrayProperty@@QAE@XZ
_TEXT	SEGMENT PARA USE32 PUBLIC 'CODE'
_TEXT	ENDS
;	COMDAT ??_GUArrayProperty@@UAEPAXI@Z
_TEXT	SEGMENT PARA USE32 PUBLIC 'CODE'
_TEXT	ENDS
;	COMDAT __imp_?StaticClass@UMapProperty@@SAPAVUClass@@XZ
_TEXT	SEGMENT PARA USE32 PUBLIC 'CODE'
_TEXT	ENDS
;	COMDAT __imp_??2UMapProperty@@SAPAXIPAW4EInternal@@@Z
_TEXT	SEGMENT PARA USE32 PUBLIC 'CODE'
_TEXT	ENDS
;	COMDAT __imp_??1UMapProperty@@UAE@XZ
_TEXT	SEGMENT PARA USE32 PUBLIC 'CODE'
_TEXT	ENDS
;	COMDAT __imp_??0UMapProperty@@QAE@XZ
_TEXT	SEGMENT PARA USE32 PUBLIC 'CODE'
_TEXT	ENDS
;	COMDAT ??_GUMapProperty@@UAEPAXI@Z
_TEXT	SEGMENT PARA USE32 PUBLIC 'CODE'
_TEXT	ENDS
;	COMDAT __imp_?StaticClass@UStructProperty@@SAPAVUClass@@XZ
_TEXT	SEGMENT PARA USE32 PUBLIC 'CODE'
_TEXT	ENDS
;	COMDAT __imp_??2UStructProperty@@SAPAXIPAW4EInternal@@@Z
_TEXT	SEGMENT PARA USE32 PUBLIC 'CODE'
_TEXT	ENDS
;	COMDAT __imp_??1UStructProperty@@UAE@XZ
_TEXT	SEGMENT PARA USE32 PUBLIC 'CODE'
_TEXT	ENDS
;	COMDAT __imp_??0UStructProperty@@QAE@XZ
_TEXT	SEGMENT PARA USE32 PUBLIC 'CODE'
_TEXT	ENDS
;	COMDAT ??_GUStructProperty@@UAEPAXI@Z
_TEXT	SEGMENT PARA USE32 PUBLIC 'CODE'
_TEXT	ENDS
;	COMDAT __imp_?IsA@UObject@@QBIHPAVUClass@@@Z
_TEXT	SEGMENT PARA USE32 PUBLIC 'CODE'
_TEXT	ENDS
;	COMDAT __imp_?IsProbing@UObject@@QAEHVFName@@@Z
_TEXT	SEGMENT PARA USE32 PUBLIC 'CODE'
_TEXT	ENDS
;	COMDAT __imp_??0FFrame@@QAE@PAVUObject@@@Z
_TEXT	SEGMENT PARA USE32 PUBLIC 'CODE'
_TEXT	ENDS
;	COMDAT __imp_??1FStateFrame@@QAE@XZ
_TEXT	SEGMENT PARA USE32 PUBLIC 'CODE'
_TEXT	ENDS
;	COMDAT ??_GFStateFrame@@QAEPAXI@Z
_TEXT	SEGMENT PARA USE32 PUBLIC 'CODE'
_TEXT	ENDS
;	COMDAT ??0FGenerationInfo@@QAE@HH@Z
_TEXT	SEGMENT PARA USE32 PUBLIC 'CODE'
_TEXT	ENDS
;	COMDAT ??6@YAAAVFArchive@@AAV0@AAUFGenerationInfo@@@Z
_TEXT	SEGMENT PARA USE32 PUBLIC 'CODE'
_TEXT	ENDS
;	COMDAT ??0FPackageFileSummary@@QAE@XZ
_TEXT	SEGMENT PARA USE32 PUBLIC 'CODE'
_TEXT	ENDS
;	COMDAT __imp_?StaticClass@ULinker@@SAPAVUClass@@XZ
_TEXT	SEGMENT PARA USE32 PUBLIC 'CODE'
_TEXT	ENDS
;	COMDAT __imp_??2ULinker@@SAPAXIPAW4EInternal@@@Z
_TEXT	SEGMENT PARA USE32 PUBLIC 'CODE'
_TEXT	ENDS
;	COMDAT __imp_??1ULinker@@UAE@XZ
_TEXT	SEGMENT PARA USE32 PUBLIC 'CODE'
_TEXT	ENDS
;	COMDAT __imp_??0ULinker@@IAE@XZ
_TEXT	SEGMENT PARA USE32 PUBLIC 'CODE'
_TEXT	ENDS
;	COMDAT ??_GULinker@@UAEPAXI@Z
_TEXT	SEGMENT PARA USE32 PUBLIC 'CODE'
_TEXT	ENDS
;	COMDAT ??1FPackageFileSummary@@QAE@XZ
_TEXT	SEGMENT PARA USE32 PUBLIC 'CODE'
_TEXT	ENDS
;	COMDAT ?StaticClass@ULinkerLoad@@SAPAVUClass@@XZ
_TEXT	SEGMENT PARA USE32 PUBLIC 'CODE'
_TEXT	ENDS
;	COMDAT ??2ULinkerLoad@@SAPAXIPAW4EInternal@@@Z
_TEXT	SEGMENT PARA USE32 PUBLIC 'CODE'
_TEXT	ENDS
;	COMDAT ??1ULinkerLoad@@UAE@XZ
_TEXT	SEGMENT PARA USE32 PUBLIC 'CODE'
_TEXT	ENDS
;	COMDAT ??0ULinkerLoad@@IAE@XZ
_TEXT	SEGMENT PARA USE32 PUBLIC 'CODE'
_TEXT	ENDS
;	COMDAT ??_GULinkerLoad@@UAEPAXI@Z
_TEXT	SEGMENT PARA USE32 PUBLIC 'CODE'
_TEXT	ENDS
;	COMDAT ?StaticClass@ULinkerSave@@SAPAVUClass@@XZ
_TEXT	SEGMENT PARA USE32 PUBLIC 'CODE'
_TEXT	ENDS
;	COMDAT ??2ULinkerSave@@SAPAXIPAW4EInternal@@@Z
_TEXT	SEGMENT PARA USE32 PUBLIC 'CODE'
_TEXT	ENDS
;	COMDAT ??1ULinkerSave@@UAE@XZ
_TEXT	SEGMENT PARA USE32 PUBLIC 'CODE'
_TEXT	ENDS
;	COMDAT ??0ULinkerSave@@IAE@XZ
_TEXT	SEGMENT PARA USE32 PUBLIC 'CODE'
_TEXT	ENDS
;	COMDAT ??_GULinkerSave@@UAEPAXI@Z
_TEXT	SEGMENT PARA USE32 PUBLIC 'CODE'
_TEXT	ENDS
;	COMDAT __imp_?StaticClass@UFactory@@SAPAVUClass@@XZ
_TEXT	SEGMENT PARA USE32 PUBLIC 'CODE'
_TEXT	ENDS
;	COMDAT __imp_??1UFactory@@UAE@XZ
_TEXT	SEGMENT PARA USE32 PUBLIC 'CODE'
_TEXT	ENDS
;	COMDAT __imp_?StaticClass@UExporter@@SAPAVUClass@@XZ
_TEXT	SEGMENT PARA USE32 PUBLIC 'CODE'
_TEXT	ENDS
;	COMDAT __imp_??1UExporter@@UAE@XZ
_TEXT	SEGMENT PARA USE32 PUBLIC 'CODE'
_TEXT	ENDS
;	COMDAT __imp_?Unlock@FCacheItem@FMemCache@@QAEXXZ
_TEXT	SEGMENT PARA USE32 PUBLIC 'CODE'
_TEXT	ENDS
;	COMDAT __imp_?GHash@FMemCache@@QAEKK@Z
_TEXT	SEGMENT PARA USE32 PUBLIC 'CODE'
_TEXT	ENDS
;	COMDAT __imp_?PushBytes@FMemStack@@QAEPAEHH@Z
_TEXT	SEGMENT PARA USE32 PUBLIC 'CODE'
_TEXT	ENDS
;	COMDAT __imp_?Tick@FMemStack@@QAEXXZ
_TEXT	SEGMENT PARA USE32 PUBLIC 'CODE'
_TEXT	ENDS
;	COMDAT ??2@YAPAXIAAVFMemStack@@HH@Z
_TEXT	SEGMENT PARA USE32 PUBLIC 'CODE'
_TEXT	ENDS
;	COMDAT __imp_??0FMemMark@@QAE@XZ
_TEXT	SEGMENT PARA USE32 PUBLIC 'CODE'
_TEXT	ENDS
;	COMDAT __imp_??0FMemMark@@QAE@AAVFMemStack@@@Z
_TEXT	SEGMENT PARA USE32 PUBLIC 'CODE'
_TEXT	ENDS
;	COMDAT __imp_?Pop@FMemMark@@QAEXXZ
_TEXT	SEGMENT PARA USE32 PUBLIC 'CODE'
_TEXT	ENDS
;	COMDAT ?FSnap@@YAMMM@Z
_TEXT	SEGMENT PARA USE32 PUBLIC 'CODE'
_TEXT	ENDS
;	COMDAT ?FSheerSnap@@YAMM@Z
_TEXT	SEGMENT PARA USE32 PUBLIC 'CODE'
_TEXT	ENDS
;	COMDAT ?FAddAngleConfined@@YIGHHHH@Z
_TEXT	SEGMENT PARA USE32 PUBLIC 'CODE'
_TEXT	ENDS
;	COMDAT __imp_??0FVector@@QAE@XZ
_TEXT	SEGMENT PARA USE32 PUBLIC 'CODE'
_TEXT	ENDS
;	COMDAT __imp_??0FVector@@QAE@MMM@Z
_TEXT	SEGMENT PARA USE32 PUBLIC 'CODE'
_TEXT	ENDS
;	COMDAT __imp_??TFVector@@QBE?AV0@ABV0@@Z
_TEXT	SEGMENT PARA USE32 PUBLIC 'CODE'
_TEXT	ENDS
;	COMDAT __imp_??UFVector@@QBEMABV0@@Z
_TEXT	SEGMENT PARA USE32 PUBLIC 'CODE'
_TEXT	ENDS
;	COMDAT ??D@YA?AVFVector@@MABV0@@Z
_TEXT	SEGMENT PARA USE32 PUBLIC 'CODE'
_TEXT	ENDS
;	COMDAT __imp_??HFVector@@QBE?AV0@ABV0@@Z
_TEXT	SEGMENT PARA USE32 PUBLIC 'CODE'
_TEXT	ENDS
;	COMDAT __imp_??GFVector@@QBE?AV0@ABV0@@Z
_TEXT	SEGMENT PARA USE32 PUBLIC 'CODE'
_TEXT	ENDS
;	COMDAT __imp_??DFVector@@QBE?AV0@M@Z
_TEXT	SEGMENT PARA USE32 PUBLIC 'CODE'
_TEXT	ENDS
;	COMDAT __imp_??KFVector@@QBE?AV0@M@Z
_TEXT	SEGMENT PARA USE32 PUBLIC 'CODE'
_TEXT	ENDS
;	COMDAT __imp_??DFVector@@QBE?AV0@ABV0@@Z
_TEXT	SEGMENT PARA USE32 PUBLIC 'CODE'
_TEXT	ENDS
;	COMDAT __imp_??8FVector@@QBEHABV0@@Z
_TEXT	SEGMENT PARA USE32 PUBLIC 'CODE'
_TEXT	ENDS
;	COMDAT __imp_??9FVector@@QBEHABV0@@Z
_TEXT	SEGMENT PARA USE32 PUBLIC 'CODE'
_TEXT	ENDS
;	COMDAT __imp_??GFVector@@QBE?AV0@XZ
_TEXT	SEGMENT PARA USE32 PUBLIC 'CODE'
_TEXT	ENDS
;	COMDAT __imp_??YFVector@@QAE?AV0@ABV0@@Z
_TEXT	SEGMENT PARA USE32 PUBLIC 'CODE'
_TEXT	ENDS
;	COMDAT __imp_??ZFVector@@QAE?AV0@ABV0@@Z
_TEXT	SEGMENT PARA USE32 PUBLIC 'CODE'
_TEXT	ENDS
;	COMDAT __imp_??XFVector@@QAE?AV0@M@Z
_TEXT	SEGMENT PARA USE32 PUBLIC 'CODE'
_TEXT	ENDS
;	COMDAT __imp_??_0FVector@@QAE?AV0@M@Z
_TEXT	SEGMENT PARA USE32 PUBLIC 'CODE'
_TEXT	ENDS
;	COMDAT __imp_??XFVector@@QAE?AV0@ABV0@@Z
_TEXT	SEGMENT PARA USE32 PUBLIC 'CODE'
_TEXT	ENDS
;	COMDAT __imp_??_0FVector@@QAE?AV0@ABV0@@Z
_TEXT	SEGMENT PARA USE32 PUBLIC 'CODE'
_TEXT	ENDS
;	COMDAT __imp_?Size@FVector@@QBEMXZ
_TEXT	SEGMENT PARA USE32 PUBLIC 'CODE'
_TEXT	ENDS
;	COMDAT __imp_?SizeSquared@FVector@@QBEMXZ
_TEXT	SEGMENT PARA USE32 PUBLIC 'CODE'
_TEXT	ENDS
;	COMDAT __imp_?Normalize@FVector@@QAEHXZ
_TEXT	SEGMENT PARA USE32 PUBLIC 'CODE'
_TEXT	ENDS
;	COMDAT __imp_?UnsafeNormal@FVector@@QBE?AV1@XZ
_TEXT	SEGMENT PARA USE32 PUBLIC 'CODE'
_TEXT	ENDS
;	COMDAT __imp_?BoundToCube@FVector@@QAE?AV1@M@Z
_TEXT	SEGMENT PARA USE32 PUBLIC 'CODE'
_TEXT	ENDS
;	COMDAT ??6@YAAAVFArchive@@AAV0@AAVFVector@@@Z
_TEXT	SEGMENT PARA USE32 PUBLIC 'CODE'
_TEXT	ENDS
;	COMDAT __imp_?ToStd@FVector@@QBE?AV1@XZ
_TEXT	SEGMENT PARA USE32 PUBLIC 'CODE'
_TEXT	ENDS
;	COMDAT __imp_?ToUnr@FVector@@QBE?AV1@XZ
_TEXT	SEGMENT PARA USE32 PUBLIC 'CODE'
_TEXT	ENDS
;	COMDAT ?RotateAboutAxis@@YA?AVFVector@@AAV1@M0@Z
_TEXT	SEGMENT PARA USE32 PUBLIC 'CODE'
_TEXT	ENDS
;	COMDAT __imp_??0FVectorDouble@@QAE@NNN@Z
_TEXT	SEGMENT PARA USE32 PUBLIC 'CODE'
_TEXT	ENDS
;	COMDAT __imp_??HFVectorDouble@@QBE?AV0@ABV0@@Z
_TEXT	SEGMENT PARA USE32 PUBLIC 'CODE'
_TEXT	ENDS
;	COMDAT __imp_?BoundToCube@FVectorDouble@@QAE?AV1@N@Z
_TEXT	SEGMENT PARA USE32 PUBLIC 'CODE'
_TEXT	ENDS
;	COMDAT __imp_??0FQuat@@QAE@XZ
_TEXT	SEGMENT PARA USE32 PUBLIC 'CODE'
_TEXT	ENDS
;	COMDAT __imp_??0FQuat@@QAE@ABVFVector@@M@Z
_TEXT	SEGMENT PARA USE32 PUBLIC 'CODE'
_TEXT	ENDS
;	COMDAT __imp_??4FQuat@@QAEAAV0@ABV0@@Z
_TEXT	SEGMENT PARA USE32 PUBLIC 'CODE'
_TEXT	ENDS
;	COMDAT __imp_?SizeSquared@FQuat@@QBEMXZ
_TEXT	SEGMENT PARA USE32 PUBLIC 'CODE'
_TEXT	ENDS
;	COMDAT __imp_?Size@FQuat@@QBEMXZ
_TEXT	SEGMENT PARA USE32 PUBLIC 'CODE'
_TEXT	ENDS
;	COMDAT __imp_?Normalize@FQuat@@QAEMXZ
_TEXT	SEGMENT PARA USE32 PUBLIC 'CODE'
_TEXT	ENDS
;	COMDAT __imp_??GFQuat@@QBE?AV0@XZ
_TEXT	SEGMENT PARA USE32 PUBLIC 'CODE'
_TEXT	ENDS
;	COMDAT __imp_??DFQuat@@QBE?AV0@ABV0@@Z
_TEXT	SEGMENT PARA USE32 PUBLIC 'CODE'
_TEXT	ENDS
;	COMDAT __imp_??UFQuat@@QBEMABV0@@Z
_TEXT	SEGMENT PARA USE32 PUBLIC 'CODE'
_TEXT	ENDS
;	COMDAT __imp_??8FQuat@@QBEHABV0@@Z
_TEXT	SEGMENT PARA USE32 PUBLIC 'CODE'
_TEXT	ENDS
;	COMDAT ??_H@YGXPAXIHP6EX0@Z@Z
_TEXT	SEGMENT PARA USE32 PUBLIC 'CODE'
_TEXT	ENDS
;	COMDAT __imp_??0FPlane@@QAE@XZ
_TEXT	SEGMENT PARA USE32 PUBLIC 'CODE'
_TEXT	ENDS
;	COMDAT __imp_??0FPlane@@QAE@ABV0@@Z
_TEXT	SEGMENT PARA USE32 PUBLIC 'CODE'
_TEXT	ENDS
;	COMDAT __imp_??0FPlane@@QAE@ABVFVector@@@Z
_TEXT	SEGMENT PARA USE32 PUBLIC 'CODE'
_TEXT	ENDS
;	COMDAT __imp_??0FPlane@@QAE@MMMM@Z
_TEXT	SEGMENT PARA USE32 PUBLIC 'CODE'
_TEXT	ENDS
;	COMDAT __imp_??0FPlane@@QAE@VFVector@@M@Z
_TEXT	SEGMENT PARA USE32 PUBLIC 'CODE'
_TEXT	ENDS
;	COMDAT __imp_?PlaneDot@FPlane@@QBEMABVFVector@@@Z
_TEXT	SEGMENT PARA USE32 PUBLIC 'CODE'
_TEXT	ENDS
;	COMDAT __imp_??9FPlane@@QBEHABV0@@Z
_TEXT	SEGMENT PARA USE32 PUBLIC 'CODE'
_TEXT	ENDS
;	COMDAT ??6@YAAAVFArchive@@AAV0@AAVFPlane@@@Z
_TEXT	SEGMENT PARA USE32 PUBLIC 'CODE'
_TEXT	ENDS
;	COMDAT __imp_??0FSphere@@QAE@H@Z
_TEXT	SEGMENT PARA USE32 PUBLIC 'CODE'
_TEXT	ENDS
;	COMDAT __imp_??0FScale@@QAE@XZ
_TEXT	SEGMENT PARA USE32 PUBLIC 'CODE'
_TEXT	ENDS
;	COMDAT __imp_?Orientation@FScale@@QAEMXZ
_TEXT	SEGMENT PARA USE32 PUBLIC 'CODE'
_TEXT	ENDS
;	COMDAT __imp_??0FCoords@@QAE@XZ
_TEXT	SEGMENT PARA USE32 PUBLIC 'CODE'
_TEXT	ENDS
;	COMDAT __imp_??0FCoords@@QAE@ABVFVector@@@Z
_TEXT	SEGMENT PARA USE32 PUBLIC 'CODE'
_TEXT	ENDS
;	COMDAT __imp_??0FCoords@@QAE@ABVFVector@@000@Z
_TEXT	SEGMENT PARA USE32 PUBLIC 'CODE'
_TEXT	ENDS
;	COMDAT __imp_??0FModelCoords@@QAE@ABVFCoords@@0@Z
_TEXT	SEGMENT PARA USE32 PUBLIC 'CODE'
_TEXT	ENDS
;	COMDAT __imp_??0FRotator@@QAE@XZ
_TEXT	SEGMENT PARA USE32 PUBLIC 'CODE'
_TEXT	ENDS
;	COMDAT __imp_??0FRotator@@QAE@HHH@Z
_TEXT	SEGMENT PARA USE32 PUBLIC 'CODE'
_TEXT	ENDS
;	COMDAT __imp_??HFRotator@@QBE?AV0@ABV0@@Z
_TEXT	SEGMENT PARA USE32 PUBLIC 'CODE'
_TEXT	ENDS
;	COMDAT __imp_??DFRotator@@QBE?AV0@M@Z
_TEXT	SEGMENT PARA USE32 PUBLIC 'CODE'
_TEXT	ENDS
;	COMDAT ??D@YA?AVFRotator@@MABV0@@Z
_TEXT	SEGMENT PARA USE32 PUBLIC 'CODE'
_TEXT	ENDS
;	COMDAT __imp_??0FRange@@QAE@MM@Z
_TEXT	SEGMENT PARA USE32 PUBLIC 'CODE'
_TEXT	ENDS
;	COMDAT __imp_??0FBox@@QAE@XZ
_TEXT	SEGMENT PARA USE32 PUBLIC 'CODE'
_TEXT	ENDS
;	COMDAT __imp_??0FBox@@QAE@H@Z
_TEXT	SEGMENT PARA USE32 PUBLIC 'CODE'
_TEXT	ENDS
;	COMDAT __imp_??0FBox@@QAE@ABVFVector@@0@Z
_TEXT	SEGMENT PARA USE32 PUBLIC 'CODE'
_TEXT	ENDS
;	COMDAT __imp_?GetExtrema@FBox@@QBEABVFVector@@H@Z
_TEXT	SEGMENT PARA USE32 PUBLIC 'CODE'
_TEXT	ENDS
;	COMDAT __imp_?Init@FBox@@QAEXXZ
_TEXT	SEGMENT PARA USE32 PUBLIC 'CODE'
_TEXT	ENDS
;	COMDAT __imp_??YFBox@@QAEAAV0@ABVFVector@@@Z
_TEXT	SEGMENT PARA USE32 PUBLIC 'CODE'
_TEXT	ENDS
;	COMDAT __imp_??YFBox@@QAEAAV0@ABV0@@Z
_TEXT	SEGMENT PARA USE32 PUBLIC 'CODE'
_TEXT	ENDS
;	COMDAT __imp_?SinTab@FGlobalMath@@QAEMH@Z
_TEXT	SEGMENT PARA USE32 PUBLIC 'CODE'
_TEXT	ENDS
;	COMDAT __imp_?CosTab@FGlobalMath@@QAEMH@Z
_TEXT	SEGMENT PARA USE32 PUBLIC 'CODE'
_TEXT	ENDS
;	COMDAT __imp_?SinFloat@FGlobalMath@@QAEMM@Z
_TEXT	SEGMENT PARA USE32 PUBLIC 'CODE'
_TEXT	ENDS
;	COMDAT __imp_?CosFloat@FGlobalMath@@QAEMM@Z
_TEXT	SEGMENT PARA USE32 PUBLIC 'CODE'
_TEXT	ENDS
;	COMDAT ?ReduceAngle@@YAHH@Z
_TEXT	SEGMENT PARA USE32 PUBLIC 'CODE'
_TEXT	ENDS
;	COMDAT ?ASMTransformPoint@@YAXABVFCoords@@ABVFVector@@AAV2@@Z
_TEXT	SEGMENT PARA USE32 PUBLIC 'CODE'
_TEXT	ENDS
;	COMDAT ?ASMTransformVector@@YAXABVFCoords@@ABVFVector@@AAV2@@Z
_TEXT	SEGMENT PARA USE32 PUBLIC 'CODE'
_TEXT	ENDS
;	COMDAT __imp_?TransformPointBy@FVector@@QBE?AV1@ABVFCoords@@@Z
_TEXT	SEGMENT PARA USE32 PUBLIC 'CODE'
_TEXT	ENDS
;	COMDAT __imp_?TransformVectorBy@FVector@@QBE?AV1@ABVFCoords@@@Z
_TEXT	SEGMENT PARA USE32 PUBLIC 'CODE'
_TEXT	ENDS
;	COMDAT __imp_?MirrorByVector@FVector@@QBE?AV1@ABV1@@Z
_TEXT	SEGMENT PARA USE32 PUBLIC 'CODE'
_TEXT	ENDS
;	COMDAT __imp_?MirrorByPlane@FVector@@QBE?AV1@ABVFPlane@@@Z
_TEXT	SEGMENT PARA USE32 PUBLIC 'CODE'
_TEXT	ENDS
;	COMDAT ?FPointPlaneDist@@YAMABVFVector@@00@Z
_TEXT	SEGMENT PARA USE32 PUBLIC 'CODE'
_TEXT	ENDS
;	COMDAT ?FParallel@@YAHABVFVector@@0@Z
_TEXT	SEGMENT PARA USE32 PUBLIC 'CODE'
_TEXT	ENDS
;	COMDAT __imp_?Transpose@FCoords@@QBE?AV1@XZ
_TEXT	SEGMENT PARA USE32 PUBLIC 'CODE'
_TEXT	ENDS
;	COMDAT __imp_??XFCoords@@QAEAAV0@ABV0@@Z
_TEXT	SEGMENT PARA USE32 PUBLIC 'CODE'
_TEXT	ENDS
;	COMDAT __imp_??DFCoords@@QBE?AV0@ABV0@@Z
_TEXT	SEGMENT PARA USE32 PUBLIC 'CODE'
_TEXT	ENDS
;	COMDAT __imp_??XFCoords@@QAEAAV0@ABVFRotator@@@Z
_TEXT	SEGMENT PARA USE32 PUBLIC 'CODE'
_TEXT	ENDS
;	COMDAT __imp_??DFCoords@@QBE?AV0@ABVFRotator@@@Z
_TEXT	SEGMENT PARA USE32 PUBLIC 'CODE'
_TEXT	ENDS
;	COMDAT __imp_??XFCoords@@QAEAAV0@ABVFVector@@@Z
_TEXT	SEGMENT PARA USE32 PUBLIC 'CODE'
_TEXT	ENDS
;	COMDAT __imp_??DFCoords@@QBE?AV0@ABVFVector@@@Z
_TEXT	SEGMENT PARA USE32 PUBLIC 'CODE'
_TEXT	ENDS
;	COMDAT __imp_??_0FCoords@@QAEAAV0@ABVFRotator@@@Z
_TEXT	SEGMENT PARA USE32 PUBLIC 'CODE'
_TEXT	ENDS
;	COMDAT __imp_??KFCoords@@QBE?AV0@ABVFRotator@@@Z
_TEXT	SEGMENT PARA USE32 PUBLIC 'CODE'
_TEXT	ENDS
;	COMDAT __imp_??_0FCoords@@QAEAAV0@ABVFVector@@@Z
_TEXT	SEGMENT PARA USE32 PUBLIC 'CODE'
_TEXT	ENDS
;	COMDAT __imp_??KFCoords@@QBE?AV0@ABVFVector@@@Z
_TEXT	SEGMENT PARA USE32 PUBLIC 'CODE'
_TEXT	ENDS
;	COMDAT __imp_??XFCoords@@QAEAAV0@ABVFScale@@@Z
_TEXT	SEGMENT PARA USE32 PUBLIC 'CODE'
_TEXT	ENDS
;	COMDAT __imp_??DFCoords@@QBE?AV0@ABVFScale@@@Z
_TEXT	SEGMENT PARA USE32 PUBLIC 'CODE'
_TEXT	ENDS
;	COMDAT __imp_??_0FCoords@@QAEAAV0@ABVFScale@@@Z
_TEXT	SEGMENT PARA USE32 PUBLIC 'CODE'
_TEXT	ENDS
;	COMDAT __imp_??KFCoords@@QBE?AV0@ABVFScale@@@Z
_TEXT	SEGMENT PARA USE32 PUBLIC 'CODE'
_TEXT	ENDS
;	COMDAT __imp_??0FMatrix@@QAE@XZ
_TEXT	SEGMENT PARA USE32 PUBLIC 'CODE'
_TEXT	ENDS
;	COMDAT __imp_??0FMatrix@@QAE@ABV0@@Z
_TEXT	SEGMENT PARA USE32 PUBLIC 'CODE'
_TEXT	ENDS
;	COMDAT __imp_??_3FCoords@@QAEAAV0@ABV0@@Z
_TEXT	SEGMENT PARA USE32 PUBLIC 'CODE'
_TEXT	ENDS
;	COMDAT __imp_??6FCoords@@QBE?AV0@ABV0@@Z
_TEXT	SEGMENT PARA USE32 PUBLIC 'CODE'
_TEXT	ENDS
;	COMDAT __imp_??SFCoords@@QBE?AV0@XZ
_TEXT	SEGMENT PARA USE32 PUBLIC 'CODE'
_TEXT	ENDS
;	COMDAT ?KRSpline_Sample@@YAXMAAVFVector@@AAVFRotator@@V1@V2@232323@Z
_TEXT	SEGMENT PARA USE32 PUBLIC 'CODE'
_TEXT	ENDS
;	COMDAT ?Splerp@@YAMM@Z
_TEXT	SEGMENT PARA USE32 PUBLIC 'CODE'
_TEXT	ENDS
;	COMDAT __imp_??0FPointRegion@@QAE@XZ
_TEXT	SEGMENT PARA USE32 PUBLIC 'CODE'
_TEXT	ENDS
;	COMDAT ?IsCsg@FBspNode@@QBEHK@Z
_TEXT	SEGMENT PARA USE32 PUBLIC 'CODE'
_TEXT	ENDS
;	COMDAT __imp_?StaticClass@UPolys@@SAPAVUClass@@XZ
_TEXT	SEGMENT PARA USE32 PUBLIC 'CODE'
_TEXT	ENDS
;	COMDAT __imp_??2UPolys@@SAPAXIPAW4EInternal@@@Z
_TEXT	SEGMENT PARA USE32 PUBLIC 'CODE'
_TEXT	ENDS
;	COMDAT __imp_??1UPolys@@UAE@XZ
_TEXT	SEGMENT PARA USE32 PUBLIC 'CODE'
_TEXT	ENDS
;	COMDAT __imp_??0UPolys@@QAE@XZ
_TEXT	SEGMENT PARA USE32 PUBLIC 'CODE'
_TEXT	ENDS
;	COMDAT __imp_?Serialize@UPolys@@UAEXAAVFArchive@@@Z
_TEXT	SEGMENT PARA USE32 PUBLIC 'CODE'
_TEXT	ENDS
;	COMDAT ??_GUPolys@@UAEPAXI@Z
_TEXT	SEGMENT PARA USE32 PUBLIC 'CODE'
_TEXT	ENDS
;	COMDAT ??1?$TTransArray@VFPoly@@@@QAE@XZ
_TEXT	SEGMENT PARA USE32 PUBLIC 'CODE'
_TEXT	ENDS
;	COMDAT ??0FIteratorActorList@@QAE@XZ
_TEXT	SEGMENT PARA USE32 PUBLIC 'CODE'
_TEXT	ENDS
;	COMDAT ??0FIteratorActorList@@QAE@PAU0@PAVAActor@@@Z
_TEXT	SEGMENT PARA USE32 PUBLIC 'CODE'
_TEXT	ENDS
;	COMDAT __imp_?StaticClass@UPrimitive@@SAPAVUClass@@XZ
_TEXT	SEGMENT PARA USE32 PUBLIC 'CODE'
_TEXT	ENDS
;	COMDAT __imp_??2UPrimitive@@SAPAXIPAW4EInternal@@@Z
_TEXT	SEGMENT PARA USE32 PUBLIC 'CODE'
_TEXT	ENDS
;	COMDAT __imp_??1UPrimitive@@UAE@XZ
_TEXT	SEGMENT PARA USE32 PUBLIC 'CODE'
_TEXT	ENDS
;	COMDAT __imp_??0UPrimitive@@QAE@XZ
_TEXT	SEGMENT PARA USE32 PUBLIC 'CODE'
_TEXT	ENDS
;	COMDAT ??_GUPrimitive@@UAEPAXI@Z
_TEXT	SEGMENT PARA USE32 PUBLIC 'CODE'
_TEXT	ENDS
;	COMDAT __imp_?StaticClass@UModel@@SAPAVUClass@@XZ
_TEXT	SEGMENT PARA USE32 PUBLIC 'CODE'
_TEXT	ENDS
;	COMDAT __imp_??2UModel@@SAPAXIPAW4EInternal@@@Z
_TEXT	SEGMENT PARA USE32 PUBLIC 'CODE'
_TEXT	ENDS
;	COMDAT __imp_??1UModel@@UAE@XZ
_TEXT	SEGMENT PARA USE32 PUBLIC 'CODE'
_TEXT	ENDS
;	COMDAT __imp_??0UModel@@QAE@XZ
_TEXT	SEGMENT PARA USE32 PUBLIC 'CODE'
_TEXT	ENDS
;	COMDAT ??_GUModel@@UAEPAXI@Z
_TEXT	SEGMENT PARA USE32 PUBLIC 'CODE'
_TEXT	ENDS
;	COMDAT ??1?$TTransArray@VFBspNode@@@@QAE@XZ
_TEXT	SEGMENT PARA USE32 PUBLIC 'CODE'
_TEXT	ENDS
;	COMDAT ??1?$TTransArray@VFVert@@@@QAE@XZ
_TEXT	SEGMENT PARA USE32 PUBLIC 'CODE'
_TEXT	ENDS
;	COMDAT ??1?$TTransArray@VFVector@@@@QAE@XZ
_TEXT	SEGMENT PARA USE32 PUBLIC 'CODE'
_TEXT	ENDS
;	COMDAT ??1?$TTransArray@VFBspSurf@@@@QAE@XZ
_TEXT	SEGMENT PARA USE32 PUBLIC 'CODE'
_TEXT	ENDS
;	COMDAT __imp_??0FColor@@QAE@XZ
_TEXT	SEGMENT PARA USE32 PUBLIC 'CODE'
_TEXT	ENDS
;	COMDAT __imp_??0FColor@@QAE@EEE@Z
_TEXT	SEGMENT PARA USE32 PUBLIC 'CODE'
_TEXT	ENDS
;	COMDAT __imp_??0FColor@@QAE@EEEE@Z
_TEXT	SEGMENT PARA USE32 PUBLIC 'CODE'
_TEXT	ENDS
;	COMDAT __imp_??0FColor@@QAE@ABVFPlane@@@Z
_TEXT	SEGMENT PARA USE32 PUBLIC 'CODE'
_TEXT	ENDS
;	COMDAT __imp_??4FColor@@QAEAAV0@K@Z
_TEXT	SEGMENT PARA USE32 PUBLIC 'CODE'
_TEXT	ENDS
;	COMDAT __imp_?TrueColor@FColor@@QBEKXZ
_TEXT	SEGMENT PARA USE32 PUBLIC 'CODE'
_TEXT	ENDS
;	COMDAT __imp_?Plane@FColor@@QBE?AVFVector@@XZ
_TEXT	SEGMENT PARA USE32 PUBLIC 'CODE'
_TEXT	ENDS
;	COMDAT __imp_?StaticClass@UPalette@@SAPAVUClass@@XZ
_TEXT	SEGMENT PARA USE32 PUBLIC 'CODE'
_TEXT	ENDS
;	COMDAT __imp_??2UPalette@@SAPAXIPAW4EInternal@@@Z
_TEXT	SEGMENT PARA USE32 PUBLIC 'CODE'
_TEXT	ENDS
;	COMDAT __imp_??1UPalette@@UAE@XZ
_TEXT	SEGMENT PARA USE32 PUBLIC 'CODE'
_TEXT	ENDS
;	COMDAT ??_GUPalette@@UAEPAXI@Z
_TEXT	SEGMENT PARA USE32 PUBLIC 'CODE'
_TEXT	ENDS
;	COMDAT __imp_??0FMipmapBase@@QAE@EE@Z
_TEXT	SEGMENT PARA USE32 PUBLIC 'CODE'
_TEXT	ENDS
;	COMDAT __imp_??0FMipmapBase@@QAE@XZ
_TEXT	SEGMENT PARA USE32 PUBLIC 'CODE'
_TEXT	ENDS
;	COMDAT __imp_?StaticClass@UBitmap@@SAPAVUClass@@XZ
_TEXT	SEGMENT PARA USE32 PUBLIC 'CODE'
_TEXT	ENDS
;	COMDAT __imp_??1UBitmap@@UAE@XZ
_TEXT	SEGMENT PARA USE32 PUBLIC 'CODE'
_TEXT	ENDS
;	COMDAT __imp_?StaticClass@UTexture@@SAPAVUClass@@XZ
_TEXT	SEGMENT PARA USE32 PUBLIC 'CODE'
_TEXT	ENDS
;	COMDAT __imp_??2UTexture@@SAPAXIPAW4EInternal@@@Z
_TEXT	SEGMENT PARA USE32 PUBLIC 'CODE'
_TEXT	ENDS
;	COMDAT ??6@YAAAVFArchive@@AAV0@AAPAVUTexture@@@Z
_TEXT	SEGMENT PARA USE32 PUBLIC 'CODE'
_TEXT	ENDS
;	COMDAT __imp_??1UTexture@@UAE@XZ
_TEXT	SEGMENT PARA USE32 PUBLIC 'CODE'
_TEXT	ENDS
;	COMDAT __imp_?GetMip@UTexture@@UAEPAUFMipmapBase@@H@Z
_TEXT	SEGMENT PARA USE32 PUBLIC 'CODE'
_TEXT	ENDS
;	COMDAT __imp_?MousePosition@UTexture@@UAEXKMM@Z
_TEXT	SEGMENT PARA USE32 PUBLIC 'CODE'
_TEXT	ENDS
;	COMDAT __imp_?Click@UTexture@@UAEXKMM@Z
_TEXT	SEGMENT PARA USE32 PUBLIC 'CODE'
_TEXT	ENDS
;	COMDAT __imp_?Get@UTexture@@QAEPAV1@N@Z
_TEXT	SEGMENT PARA USE32 PUBLIC 'CODE'
_TEXT	ENDS
;	COMDAT ??_GUTexture@@UAEPAXI@Z
_TEXT	SEGMENT PARA USE32 PUBLIC 'CODE'
_TEXT	ENDS
;	COMDAT ??6@YAAAVFArchive@@AAV0@AAUFFontCharacter@@@Z
_TEXT	SEGMENT PARA USE32 PUBLIC 'CODE'
_TEXT	ENDS
;	COMDAT __imp_?StaticClass@UFont@@SAPAVUClass@@XZ
_TEXT	SEGMENT PARA USE32 PUBLIC 'CODE'
_TEXT	ENDS
;	COMDAT __imp_??2UFont@@SAPAXIPAW4EInternal@@@Z
_TEXT	SEGMENT PARA USE32 PUBLIC 'CODE'
_TEXT	ENDS
;	COMDAT __imp_??1UFont@@UAE@XZ
_TEXT	SEGMENT PARA USE32 PUBLIC 'CODE'
_TEXT	ENDS
;	COMDAT ??_GUFont@@UAEPAXI@Z
_TEXT	SEGMENT PARA USE32 PUBLIC 'CODE'
_TEXT	ENDS
;	COMDAT __imp_?StaticClass@UFontTrueType@@SAPAVUClass@@XZ
_TEXT	SEGMENT PARA USE32 PUBLIC 'CODE'
_TEXT	ENDS
;	COMDAT __imp_??2UFontTrueType@@SAPAXIPAW4EInternal@@@Z
_TEXT	SEGMENT PARA USE32 PUBLIC 'CODE'
_TEXT	ENDS
;	COMDAT __imp_??1UFontTrueType@@UAE@XZ
_TEXT	SEGMENT PARA USE32 PUBLIC 'CODE'
_TEXT	ENDS
;	COMDAT ??_GUFontTrueType@@UAEPAXI@Z
_TEXT	SEGMENT PARA USE32 PUBLIC 'CODE'
_TEXT	ENDS
;	COMDAT ??1?$TMap@GH@@QAE@XZ
_TEXT	SEGMENT PARA USE32 PUBLIC 'CODE'
_TEXT	ENDS
;	COMDAT __imp_?StaticClass@UProceduralTexture@@SAPAVUClass@@XZ
_TEXT	SEGMENT PARA USE32 PUBLIC 'CODE'
_TEXT	ENDS
;	COMDAT __imp_??1UProceduralTexture@@UAE@XZ
_TEXT	SEGMENT PARA USE32 PUBLIC 'CODE'
_TEXT	ENDS
;	COMDAT __imp_?StaticClass@UMesh@@SAPAVUClass@@XZ
_TEXT	SEGMENT PARA USE32 PUBLIC 'CODE'
_TEXT	ENDS
;	COMDAT __imp_??2UMesh@@SAPAXIPAW4EInternal@@@Z
_TEXT	SEGMENT PARA USE32 PUBLIC 'CODE'
_TEXT	ENDS
;	COMDAT __imp_??1UMesh@@UAE@XZ
_TEXT	SEGMENT PARA USE32 PUBLIC 'CODE'
_TEXT	ENDS
;	COMDAT __imp_?GetInstanceClass@UMesh@@UAEPAVUClass@@XZ
_TEXT	SEGMENT PARA USE32 PUBLIC 'CODE'
_TEXT	ENDS
;	COMDAT ??_GUMesh@@UAEPAXI@Z
_TEXT	SEGMENT PARA USE32 PUBLIC 'CODE'
_TEXT	ENDS
;	COMDAT __imp_?StaticClass@UMeshInstance@@SAPAVUClass@@XZ
_TEXT	SEGMENT PARA USE32 PUBLIC 'CODE'
_TEXT	ENDS
;	COMDAT __imp_??2UMeshInstance@@SAPAXIPAW4EInternal@@@Z
_TEXT	SEGMENT PARA USE32 PUBLIC 'CODE'
_TEXT	ENDS
;	COMDAT __imp_??1UMeshInstance@@UAE@XZ
_TEXT	SEGMENT PARA USE32 PUBLIC 'CODE'
_TEXT	ENDS
;	COMDAT __imp_?PointCheck@UMeshInstance@@UAEHAAUFCheckResult@@PAVAActor@@VFVector@@2K@Z
_TEXT	SEGMENT PARA USE32 PUBLIC 'CODE'
_TEXT	ENDS
;	COMDAT __imp_?LineCheck@UMeshInstance@@UAEHAAUFCheckResult@@PAVAActor@@VFVector@@22KH@Z
_TEXT	SEGMENT PARA USE32 PUBLIC 'CODE'
_TEXT	ENDS
;	COMDAT __imp_?GetRenderBoundingBox@UMeshInstance@@UAE?AVFBox@@PBVAActor@@H@Z
_TEXT	SEGMENT PARA USE32 PUBLIC 'CODE'
_TEXT	ENDS
;	COMDAT __imp_?GetCollisionBoundingBox@UMeshInstance@@UBE?AVFBox@@PBVAActor@@@Z
_TEXT	SEGMENT PARA USE32 PUBLIC 'CODE'
_TEXT	ENDS
;	COMDAT __imp_?GetMesh@UMeshInstance@@UAEPAVUMesh@@XZ
_TEXT	SEGMENT PARA USE32 PUBLIC 'CODE'
_TEXT	ENDS
;	COMDAT __imp_?SetMesh@UMeshInstance@@UAEXPAVUMesh@@@Z
_TEXT	SEGMENT PARA USE32 PUBLIC 'CODE'
_TEXT	ENDS
;	COMDAT __imp_?GetActor@UMeshInstance@@UAEPAVAActor@@XZ
_TEXT	SEGMENT PARA USE32 PUBLIC 'CODE'
_TEXT	ENDS
;	COMDAT __imp_?SetActor@UMeshInstance@@UAEXPAVAActor@@@Z
_TEXT	SEGMENT PARA USE32 PUBLIC 'CODE'
_TEXT	ENDS
;	COMDAT __imp_?GetNumSequences@UMeshInstance@@UAEHXZ
_TEXT	SEGMENT PARA USE32 PUBLIC 'CODE'
_TEXT	ENDS
;	COMDAT __imp_?GetSequence@UMeshInstance@@UAEPAXH@Z
_TEXT	SEGMENT PARA USE32 PUBLIC 'CODE'
_TEXT	ENDS
;	COMDAT __imp_?FindSequence@UMeshInstance@@UAEPAXVFName@@@Z
_TEXT	SEGMENT PARA USE32 PUBLIC 'CODE'
_TEXT	ENDS
;	COMDAT __imp_?GetSeqName@UMeshInstance@@UAE?AVFName@@PAX@Z
_TEXT	SEGMENT PARA USE32 PUBLIC 'CODE'
_TEXT	ENDS
;	COMDAT __imp_?SetSeqGroupName@UMeshInstance@@UAEXVFName@@0@Z
_TEXT	SEGMENT PARA USE32 PUBLIC 'CODE'
_TEXT	ENDS
;	COMDAT __imp_?GetSeqGroupName@UMeshInstance@@UAE?AVFName@@V2@@Z
_TEXT	SEGMENT PARA USE32 PUBLIC 'CODE'
_TEXT	ENDS
;	COMDAT __imp_?GetSeqNumFrames@UMeshInstance@@UAEHPAX@Z
_TEXT	SEGMENT PARA USE32 PUBLIC 'CODE'
_TEXT	ENDS
;	COMDAT __imp_?GetSeqRate@UMeshInstance@@UAEMPAX@Z
_TEXT	SEGMENT PARA USE32 PUBLIC 'CODE'
_TEXT	ENDS
;	COMDAT __imp_?GetSeqNumEvents@UMeshInstance@@UAEHPAX@Z
_TEXT	SEGMENT PARA USE32 PUBLIC 'CODE'
_TEXT	ENDS
;	COMDAT __imp_?GetSeqEventType@UMeshInstance@@UAE?AW4EMeshSeqEvent@@PAXH@Z
_TEXT	SEGMENT PARA USE32 PUBLIC 'CODE'
_TEXT	ENDS
;	COMDAT __imp_?GetSeqEventTime@UMeshInstance@@UAEMPAXH@Z
_TEXT	SEGMENT PARA USE32 PUBLIC 'CODE'
_TEXT	ENDS
;	COMDAT __imp_?GetSeqEventString@UMeshInstance@@UAEPBGPAXH@Z
_TEXT	SEGMENT PARA USE32 PUBLIC 'CODE'
_TEXT	ENDS
;	COMDAT __imp_?PlaySequence@UMeshInstance@@UAEHPAXEHMMM@Z
_TEXT	SEGMENT PARA USE32 PUBLIC 'CODE'
_TEXT	ENDS
;	COMDAT __imp_?DriveSequences@UMeshInstance@@UAEXM@Z
_TEXT	SEGMENT PARA USE32 PUBLIC 'CODE'
_TEXT	ENDS
;	COMDAT __imp_?GetTexture@UMeshInstance@@UAEPAVUTexture@@H@Z
_TEXT	SEGMENT PARA USE32 PUBLIC 'CODE'
_TEXT	ENDS
;	COMDAT __imp_?GetStringValue@UMeshInstance@@UAEXAAVFOutputDevice@@PBGH@Z
_TEXT	SEGMENT PARA USE32 PUBLIC 'CODE'
_TEXT	ENDS
;	COMDAT __imp_?SendStringCommand@UMeshInstance@@UAEXPBG@Z
_TEXT	SEGMENT PARA USE32 PUBLIC 'CODE'
_TEXT	ENDS
;	COMDAT __imp_?GetBasisCoords@UMeshInstance@@UAE?AVFCoords@@V2@@Z
_TEXT	SEGMENT PARA USE32 PUBLIC 'CODE'
_TEXT	ENDS
;	COMDAT __imp_?GetFrame@UMeshInstance@@UAEHPAVFVector@@PAEHVFCoords@@M@Z
_TEXT	SEGMENT PARA USE32 PUBLIC 'CODE'
_TEXT	ENDS
;	COMDAT __imp_?GetMountCoords@UMeshInstance@@UAEHVFName@@HAAVFCoords@@PAVAActor@@@Z
_TEXT	SEGMENT PARA USE32 PUBLIC 'CODE'
_TEXT	ENDS
;	COMDAT __imp_?Draw@UMeshInstance@@UAEXPAX0VFCoords@@K@Z
_TEXT	SEGMENT PARA USE32 PUBLIC 'CODE'
_TEXT	ENDS
;	COMDAT ??_GUMeshInstance@@UAEPAXI@Z
_TEXT	SEGMENT PARA USE32 PUBLIC 'CODE'
_TEXT	ENDS
;	COMDAT __imp_??0UMeshInstance@@QAE@XZ
_TEXT	SEGMENT PARA USE32 PUBLIC 'CODE'
_TEXT	ENDS
;	COMDAT __imp_??0FMeshChannel@@QAE@XZ
_TEXT	SEGMENT PARA USE32 PUBLIC 'CODE'
_TEXT	ENDS
;	COMDAT __imp_?StaticClass@AActor@@SAPAVUClass@@XZ
_TEXT	SEGMENT PARA USE32 PUBLIC 'CODE'
_TEXT	ENDS
;	COMDAT __imp_??2AActor@@SAPAXIPAW4EInternal@@@Z
_TEXT	SEGMENT PARA USE32 PUBLIC 'CODE'
_TEXT	ENDS
;	COMDAT ??6@YAAAVFArchive@@AAV0@AAPAVAActor@@@Z
_TEXT	SEGMENT PARA USE32 PUBLIC 'CODE'
_TEXT	ENDS
;	COMDAT __imp_??1AActor@@UAE@XZ
_TEXT	SEGMENT PARA USE32 PUBLIC 'CODE'
_TEXT	ENDS
;	COMDAT __imp_??0AActor@@QAE@XZ
_TEXT	SEGMENT PARA USE32 PUBLIC 'CODE'
_TEXT	ENDS
;	COMDAT __imp_?ShouldDoScriptReplication@AActor@@UAEHXZ
_TEXT	SEGMENT PARA USE32 PUBLIC 'CODE'
_TEXT	ENDS
;	COMDAT __imp_?GetLevel@AActor@@QBEPAVULevel@@XZ
_TEXT	SEGMENT PARA USE32 PUBLIC 'CODE'
_TEXT	ENDS
;	COMDAT __imp_?WorldLightRadius@AActor@@UBEMXZ
_TEXT	SEGMENT PARA USE32 PUBLIC 'CODE'
_TEXT	ENDS
;	COMDAT __imp_?PostEditMove@AActor@@UAEXXZ
_TEXT	SEGMENT PARA USE32 PUBLIC 'CODE'
_TEXT	ENDS
;	COMDAT __imp_?PreRaytrace@AActor@@UAEXXZ
_TEXT	SEGMENT PARA USE32 PUBLIC 'CODE'
_TEXT	ENDS
;	COMDAT __imp_?PostRaytrace@AActor@@UAEXXZ
_TEXT	SEGMENT PARA USE32 PUBLIC 'CODE'
_TEXT	ENDS
;	COMDAT __imp_?Spawned@AActor@@UAEXXZ
_TEXT	SEGMENT PARA USE32 PUBLIC 'CODE'
_TEXT	ENDS
;	COMDAT __imp_?ToLocal@AActor@@UBE?AVFCoords@@XZ
_TEXT	SEGMENT PARA USE32 PUBLIC 'CODE'
_TEXT	ENDS
;	COMDAT __imp_?ToWorld@AActor@@UBE?AVFCoords@@XZ
_TEXT	SEGMENT PARA USE32 PUBLIC 'CODE'
_TEXT	ENDS
;	COMDAT __imp_?IsPendingKill@AActor@@UAEHXZ
_TEXT	SEGMENT PARA USE32 PUBLIC 'CODE'
_TEXT	ENDS
;	COMDAT __imp_?GetMeshInstance@AActor@@QAEPAVUMeshInstance@@XZ
_TEXT	SEGMENT PARA USE32 PUBLIC 'CODE'
_TEXT	ENDS
;	COMDAT ??0AActor_eventCalcView_Parms@@QAE@XZ
_TEXT	SEGMENT PARA USE32 PUBLIC 'CODE'
_TEXT	ENDS
;	COMDAT ??0AActor_eventGlobalTrigger_Parms@@QAE@XZ
_TEXT	SEGMENT PARA USE32 PUBLIC 'CODE'
_TEXT	ENDS
;	COMDAT ??0AActor_eventEnumSurfsInRadiusCB_Parms@@QAE@XZ
_TEXT	SEGMENT PARA USE32 PUBLIC 'CODE'
_TEXT	ENDS
;	COMDAT ??0AActor_eventBroadcastMessage_Parms@@QAE@XZ
_TEXT	SEGMENT PARA USE32 PUBLIC 'CODE'
_TEXT	ENDS
;	COMDAT ??1AActor_eventBroadcastMessage_Parms@@QAE@XZ
_TEXT	SEGMENT PARA USE32 PUBLIC 'CODE'
_TEXT	ENDS
;	COMDAT ??0AActor_eventTakeDamage_Parms@@QAE@XZ
_TEXT	SEGMENT PARA USE32 PUBLIC 'CODE'
_TEXT	ENDS
;	COMDAT ??0AActor_eventPushedByMover_Parms@@QAE@XZ
_TEXT	SEGMENT PARA USE32 PUBLIC 'CODE'
_TEXT	ENDS
;	COMDAT ??0AActor_eventLanded_Parms@@QAE@XZ
_TEXT	SEGMENT PARA USE32 PUBLIC 'CODE'
_TEXT	ENDS
;	COMDAT ??0AActor_eventHitWall_Parms@@QAE@XZ
_TEXT	SEGMENT PARA USE32 PUBLIC 'CODE'
_TEXT	ENDS
;	COMDAT ??_GAActor@@UAEPAXI@Z
_TEXT	SEGMENT PARA USE32 PUBLIC 'CODE'
_TEXT	ENDS
;	COMDAT __imp_?StaticClass@AInfoActor@@SAPAVUClass@@XZ
_TEXT	SEGMENT PARA USE32 PUBLIC 'CODE'
_TEXT	ENDS
;	COMDAT __imp_??2AInfoActor@@SAPAXIPAW4EInternal@@@Z
_TEXT	SEGMENT PARA USE32 PUBLIC 'CODE'
_TEXT	ENDS
;	COMDAT __imp_??1AInfoActor@@UAE@XZ
_TEXT	SEGMENT PARA USE32 PUBLIC 'CODE'
_TEXT	ENDS
;	COMDAT __imp_??0AInfoActor@@IAE@XZ
_TEXT	SEGMENT PARA USE32 PUBLIC 'CODE'
_TEXT	ENDS
;	COMDAT ??_GAInfoActor@@UAEPAXI@Z
_TEXT	SEGMENT PARA USE32 PUBLIC 'CODE'
_TEXT	ENDS
;	COMDAT __imp_?StaticClass@AInfo@@SAPAVUClass@@XZ
_TEXT	SEGMENT PARA USE32 PUBLIC 'CODE'
_TEXT	ENDS
;	COMDAT __imp_??2AInfo@@SAPAXIPAW4EInternal@@@Z
_TEXT	SEGMENT PARA USE32 PUBLIC 'CODE'
_TEXT	ENDS
;	COMDAT __imp_??1AInfo@@UAE@XZ
_TEXT	SEGMENT PARA USE32 PUBLIC 'CODE'
_TEXT	ENDS
;	COMDAT __imp_??0AInfo@@IAE@XZ
_TEXT	SEGMENT PARA USE32 PUBLIC 'CODE'
_TEXT	ENDS
;	COMDAT ??_GAInfo@@UAEPAXI@Z
_TEXT	SEGMENT PARA USE32 PUBLIC 'CODE'
_TEXT	ENDS
;	COMDAT __imp_?StaticClass@AInternetInfo@@SAPAVUClass@@XZ
_TEXT	SEGMENT PARA USE32 PUBLIC 'CODE'
_TEXT	ENDS
;	COMDAT __imp_??2AInternetInfo@@SAPAXIPAW4EInternal@@@Z
_TEXT	SEGMENT PARA USE32 PUBLIC 'CODE'
_TEXT	ENDS
;	COMDAT __imp_??1AInternetInfo@@UAE@XZ
_TEXT	SEGMENT PARA USE32 PUBLIC 'CODE'
_TEXT	ENDS
;	COMDAT __imp_??0AInternetInfo@@IAE@XZ
_TEXT	SEGMENT PARA USE32 PUBLIC 'CODE'
_TEXT	ENDS
;	COMDAT ??_GAInternetInfo@@UAEPAXI@Z
_TEXT	SEGMENT PARA USE32 PUBLIC 'CODE'
_TEXT	ENDS
;	COMDAT __imp_?StaticClass@AInternetLink@@SAPAVUClass@@XZ
_TEXT	SEGMENT PARA USE32 PUBLIC 'CODE'
_TEXT	ENDS
;	COMDAT __imp_??2AInternetLink@@SAPAXIPAW4EInternal@@@Z
_TEXT	SEGMENT PARA USE32 PUBLIC 'CODE'
_TEXT	ENDS
;	COMDAT __imp_??1AInternetLink@@UAE@XZ
_TEXT	SEGMENT PARA USE32 PUBLIC 'CODE'
_TEXT	ENDS
;	COMDAT ??_GAInternetLink@@UAEPAXI@Z
_TEXT	SEGMENT PARA USE32 PUBLIC 'CODE'
_TEXT	ENDS
;	COMDAT __imp_?StaticClass@AUdpLink@@SAPAVUClass@@XZ
_TEXT	SEGMENT PARA USE32 PUBLIC 'CODE'
_TEXT	ENDS
;	COMDAT __imp_??2AUdpLink@@SAPAXIPAW4EInternal@@@Z
_TEXT	SEGMENT PARA USE32 PUBLIC 'CODE'
_TEXT	ENDS
;	COMDAT __imp_??1AUdpLink@@UAE@XZ
_TEXT	SEGMENT PARA USE32 PUBLIC 'CODE'
_TEXT	ENDS
;	COMDAT ??0AUdpLink_eventReceivedLine_Parms@@QAE@XZ
_TEXT	SEGMENT PARA USE32 PUBLIC 'CODE'
_TEXT	ENDS
;	COMDAT ??1AUdpLink_eventReceivedLine_Parms@@QAE@XZ
_TEXT	SEGMENT PARA USE32 PUBLIC 'CODE'
_TEXT	ENDS
;	COMDAT ??0AUdpLink_eventReceivedText_Parms@@QAE@XZ
_TEXT	SEGMENT PARA USE32 PUBLIC 'CODE'
_TEXT	ENDS
;	COMDAT ??1AUdpLink_eventReceivedText_Parms@@QAE@XZ
_TEXT	SEGMENT PARA USE32 PUBLIC 'CODE'
_TEXT	ENDS
;	COMDAT ??_GAUdpLink@@UAEPAXI@Z
_TEXT	SEGMENT PARA USE32 PUBLIC 'CODE'
_TEXT	ENDS
;	COMDAT __imp_?StaticClass@ATcpLink@@SAPAVUClass@@XZ
_TEXT	SEGMENT PARA USE32 PUBLIC 'CODE'
_TEXT	ENDS
;	COMDAT __imp_??2ATcpLink@@SAPAXIPAW4EInternal@@@Z
_TEXT	SEGMENT PARA USE32 PUBLIC 'CODE'
_TEXT	ENDS
;	COMDAT __imp_??1ATcpLink@@UAE@XZ
_TEXT	SEGMENT PARA USE32 PUBLIC 'CODE'
_TEXT	ENDS
;	COMDAT ??0ATcpLink_eventReceivedLine_Parms@@QAE@XZ
_TEXT	SEGMENT PARA USE32 PUBLIC 'CODE'
_TEXT	ENDS
;	COMDAT ??1ATcpLink_eventReceivedLine_Parms@@QAE@XZ
_TEXT	SEGMENT PARA USE32 PUBLIC 'CODE'
_TEXT	ENDS
;	COMDAT ??0ATcpLink_eventReceivedText_Parms@@QAE@XZ
_TEXT	SEGMENT PARA USE32 PUBLIC 'CODE'
_TEXT	ENDS
;	COMDAT ??1ATcpLink_eventReceivedText_Parms@@QAE@XZ
_TEXT	SEGMENT PARA USE32 PUBLIC 'CODE'
_TEXT	ENDS
;	COMDAT ??_GATcpLink@@UAEPAXI@Z
_TEXT	SEGMENT PARA USE32 PUBLIC 'CODE'
_TEXT	ENDS
;	COMDAT __imp_?StaticClass@AMapLocations@@SAPAVUClass@@XZ
_TEXT	SEGMENT PARA USE32 PUBLIC 'CODE'
_TEXT	ENDS
;	COMDAT __imp_??2AMapLocations@@SAPAXIPAW4EInternal@@@Z
_TEXT	SEGMENT PARA USE32 PUBLIC 'CODE'
_TEXT	ENDS
;	COMDAT __imp_??1AMapLocations@@UAE@XZ
_TEXT	SEGMENT PARA USE32 PUBLIC 'CODE'
_TEXT	ENDS
;	COMDAT __imp_??0AMapLocations@@IAE@XZ
_TEXT	SEGMENT PARA USE32 PUBLIC 'CODE'
_TEXT	ENDS
;	COMDAT ??_GAMapLocations@@UAEPAXI@Z
_TEXT	SEGMENT PARA USE32 PUBLIC 'CODE'
_TEXT	ENDS
;	COMDAT __imp_??1FMapInfoData@@QAE@XZ
_TEXT	SEGMENT PARA USE32 PUBLIC 'CODE'
_TEXT	ENDS
;	COMDAT __imp_??0FMapInfoData@@QAE@XZ
_TEXT	SEGMENT PARA USE32 PUBLIC 'CODE'
_TEXT	ENDS
;	COMDAT __imp_?StaticClass@ADOTAffector@@SAPAVUClass@@XZ
_TEXT	SEGMENT PARA USE32 PUBLIC 'CODE'
_TEXT	ENDS
;	COMDAT __imp_??2ADOTAffector@@SAPAXIPAW4EInternal@@@Z
_TEXT	SEGMENT PARA USE32 PUBLIC 'CODE'
_TEXT	ENDS
;	COMDAT __imp_??1ADOTAffector@@UAE@XZ
_TEXT	SEGMENT PARA USE32 PUBLIC 'CODE'
_TEXT	ENDS
;	COMDAT __imp_??0ADOTAffector@@IAE@XZ
_TEXT	SEGMENT PARA USE32 PUBLIC 'CODE'
_TEXT	ENDS
;	COMDAT ??_GADOTAffector@@UAEPAXI@Z
_TEXT	SEGMENT PARA USE32 PUBLIC 'CODE'
_TEXT	ENDS
;	COMDAT __imp_?StaticClass@AActorDamageEffect@@SAPAVUClass@@XZ
_TEXT	SEGMENT PARA USE32 PUBLIC 'CODE'
_TEXT	ENDS
;	COMDAT __imp_??2AActorDamageEffect@@SAPAXIPAW4EInternal@@@Z
_TEXT	SEGMENT PARA USE32 PUBLIC 'CODE'
_TEXT	ENDS
;	COMDAT __imp_??1AActorDamageEffect@@UAE@XZ
_TEXT	SEGMENT PARA USE32 PUBLIC 'CODE'
_TEXT	ENDS
;	COMDAT __imp_??0AActorDamageEffect@@IAE@XZ
_TEXT	SEGMENT PARA USE32 PUBLIC 'CODE'
_TEXT	ENDS
;	COMDAT ??_GAActorDamageEffect@@UAEPAXI@Z
_TEXT	SEGMENT PARA USE32 PUBLIC 'CODE'
_TEXT	ENDS
;	COMDAT __imp_?StaticClass@AMutator@@SAPAVUClass@@XZ
_TEXT	SEGMENT PARA USE32 PUBLIC 'CODE'
_TEXT	ENDS
;	COMDAT __imp_??2AMutator@@SAPAXIPAW4EInternal@@@Z
_TEXT	SEGMENT PARA USE32 PUBLIC 'CODE'
_TEXT	ENDS
;	COMDAT __imp_??1AMutator@@UAE@XZ
_TEXT	SEGMENT PARA USE32 PUBLIC 'CODE'
_TEXT	ENDS
;	COMDAT __imp_??0AMutator@@IAE@XZ
_TEXT	SEGMENT PARA USE32 PUBLIC 'CODE'
_TEXT	ENDS
;	COMDAT ??_GAMutator@@UAEPAXI@Z
_TEXT	SEGMENT PARA USE32 PUBLIC 'CODE'
_TEXT	ENDS
;	COMDAT __imp_?StaticClass@AReplicationInfo@@SAPAVUClass@@XZ
_TEXT	SEGMENT PARA USE32 PUBLIC 'CODE'
_TEXT	ENDS
;	COMDAT __imp_??2AReplicationInfo@@SAPAXIPAW4EInternal@@@Z
_TEXT	SEGMENT PARA USE32 PUBLIC 'CODE'
_TEXT	ENDS
;	COMDAT __imp_??1AReplicationInfo@@UAE@XZ
_TEXT	SEGMENT PARA USE32 PUBLIC 'CODE'
_TEXT	ENDS
;	COMDAT __imp_??0AReplicationInfo@@IAE@XZ
_TEXT	SEGMENT PARA USE32 PUBLIC 'CODE'
_TEXT	ENDS
;	COMDAT ??_GAReplicationInfo@@UAEPAXI@Z
_TEXT	SEGMENT PARA USE32 PUBLIC 'CODE'
_TEXT	ENDS
;	COMDAT __imp_?StaticClass@AGameReplicationInfo@@SAPAVUClass@@XZ
_TEXT	SEGMENT PARA USE32 PUBLIC 'CODE'
_TEXT	ENDS
;	COMDAT __imp_??2AGameReplicationInfo@@SAPAXIPAW4EInternal@@@Z
_TEXT	SEGMENT PARA USE32 PUBLIC 'CODE'
_TEXT	ENDS
;	COMDAT __imp_??1AGameReplicationInfo@@UAE@XZ
_TEXT	SEGMENT PARA USE32 PUBLIC 'CODE'
_TEXT	ENDS
;	COMDAT __imp_??0AGameReplicationInfo@@QAE@XZ
_TEXT	SEGMENT PARA USE32 PUBLIC 'CODE'
_TEXT	ENDS
;	COMDAT ??_GAGameReplicationInfo@@UAEPAXI@Z
_TEXT	SEGMENT PARA USE32 PUBLIC 'CODE'
_TEXT	ENDS
;	COMDAT __imp_?StaticClass@APlayerReplicationInfo@@SAPAVUClass@@XZ
_TEXT	SEGMENT PARA USE32 PUBLIC 'CODE'
_TEXT	ENDS
;	COMDAT __imp_??2APlayerReplicationInfo@@SAPAXIPAW4EInternal@@@Z
_TEXT	SEGMENT PARA USE32 PUBLIC 'CODE'
_TEXT	ENDS
;	COMDAT __imp_??1APlayerReplicationInfo@@UAE@XZ
_TEXT	SEGMENT PARA USE32 PUBLIC 'CODE'
_TEXT	ENDS
;	COMDAT __imp_??0APlayerReplicationInfo@@QAE@XZ
_TEXT	SEGMENT PARA USE32 PUBLIC 'CODE'
_TEXT	ENDS
;	COMDAT ??_GAPlayerReplicationInfo@@UAEPAXI@Z
_TEXT	SEGMENT PARA USE32 PUBLIC 'CODE'
_TEXT	ENDS
;	COMDAT __imp_?StaticClass@ASavedMove@@SAPAVUClass@@XZ
_TEXT	SEGMENT PARA USE32 PUBLIC 'CODE'
_TEXT	ENDS
;	COMDAT __imp_??2ASavedMove@@SAPAXIPAW4EInternal@@@Z
_TEXT	SEGMENT PARA USE32 PUBLIC 'CODE'
_TEXT	ENDS
;	COMDAT __imp_??1ASavedMove@@UAE@XZ
_TEXT	SEGMENT PARA USE32 PUBLIC 'CODE'
_TEXT	ENDS
;	COMDAT __imp_??0ASavedMove@@IAE@XZ
_TEXT	SEGMENT PARA USE32 PUBLIC 'CODE'
_TEXT	ENDS
;	COMDAT ??_GASavedMove@@UAEPAXI@Z
_TEXT	SEGMENT PARA USE32 PUBLIC 'CODE'
_TEXT	ENDS
;	COMDAT __imp_?StaticClass@AZoneInfo@@SAPAVUClass@@XZ
_TEXT	SEGMENT PARA USE32 PUBLIC 'CODE'
_TEXT	ENDS
;	COMDAT __imp_??2AZoneInfo@@SAPAXIPAW4EInternal@@@Z
_TEXT	SEGMENT PARA USE32 PUBLIC 'CODE'
_TEXT	ENDS
;	COMDAT __imp_??1AZoneInfo@@UAE@XZ
_TEXT	SEGMENT PARA USE32 PUBLIC 'CODE'
_TEXT	ENDS
;	COMDAT __imp_??0AZoneInfo@@QAE@XZ
_TEXT	SEGMENT PARA USE32 PUBLIC 'CODE'
_TEXT	ENDS
;	COMDAT ??_GAZoneInfo@@UAEPAXI@Z
_TEXT	SEGMENT PARA USE32 PUBLIC 'CODE'
_TEXT	ENDS
;	COMDAT __imp_?StaticClass@AWarpZoneInfo@@SAPAVUClass@@XZ
_TEXT	SEGMENT PARA USE32 PUBLIC 'CODE'
_TEXT	ENDS
;	COMDAT __imp_??2AWarpZoneInfo@@SAPAXIPAW4EInternal@@@Z
_TEXT	SEGMENT PARA USE32 PUBLIC 'CODE'
_TEXT	ENDS
;	COMDAT __imp_??1AWarpZoneInfo@@UAE@XZ
_TEXT	SEGMENT PARA USE32 PUBLIC 'CODE'
_TEXT	ENDS
;	COMDAT __imp_??0AWarpZoneInfo@@IAE@XZ
_TEXT	SEGMENT PARA USE32 PUBLIC 'CODE'
_TEXT	ENDS
;	COMDAT ??_GAWarpZoneInfo@@UAEPAXI@Z
_TEXT	SEGMENT PARA USE32 PUBLIC 'CODE'
_TEXT	ENDS
;	COMDAT __imp_?StaticClass@ASkyZoneInfo@@SAPAVUClass@@XZ
_TEXT	SEGMENT PARA USE32 PUBLIC 'CODE'
_TEXT	ENDS
;	COMDAT __imp_??2ASkyZoneInfo@@SAPAXIPAW4EInternal@@@Z
_TEXT	SEGMENT PARA USE32 PUBLIC 'CODE'
_TEXT	ENDS
;	COMDAT __imp_??1ASkyZoneInfo@@UAE@XZ
_TEXT	SEGMENT PARA USE32 PUBLIC 'CODE'
_TEXT	ENDS
;	COMDAT __imp_??0ASkyZoneInfo@@IAE@XZ
_TEXT	SEGMENT PARA USE32 PUBLIC 'CODE'
_TEXT	ENDS
;	COMDAT ??_GASkyZoneInfo@@UAEPAXI@Z
_TEXT	SEGMENT PARA USE32 PUBLIC 'CODE'
_TEXT	ENDS
;	COMDAT __imp_?StaticClass@ALevelInfo@@SAPAVUClass@@XZ
_TEXT	SEGMENT PARA USE32 PUBLIC 'CODE'
_TEXT	ENDS
;	COMDAT __imp_??2ALevelInfo@@SAPAXIPAW4EInternal@@@Z
_TEXT	SEGMENT PARA USE32 PUBLIC 'CODE'
_TEXT	ENDS
;	COMDAT __imp_??1ALevelInfo@@UAE@XZ
_TEXT	SEGMENT PARA USE32 PUBLIC 'CODE'
_TEXT	ENDS
;	COMDAT __imp_??0ALevelInfo@@IAE@XZ
_TEXT	SEGMENT PARA USE32 PUBLIC 'CODE'
_TEXT	ENDS
;	COMDAT ??0ALevelInfo_eventServerTravel_Parms@@QAE@XZ
_TEXT	SEGMENT PARA USE32 PUBLIC 'CODE'
_TEXT	ENDS
;	COMDAT ??1ALevelInfo_eventServerTravel_Parms@@QAE@XZ
_TEXT	SEGMENT PARA USE32 PUBLIC 'CODE'
_TEXT	ENDS
;	COMDAT ??_GALevelInfo@@UAEPAXI@Z
_TEXT	SEGMENT PARA USE32 PUBLIC 'CODE'
_TEXT	ENDS
;	COMDAT __imp_??1FObjectiveInfo@@QAE@XZ
_TEXT	SEGMENT PARA USE32 PUBLIC 'CODE'
_TEXT	ENDS
;	COMDAT __imp_??0FObjectiveInfo@@QAE@XZ
_TEXT	SEGMENT PARA USE32 PUBLIC 'CODE'
_TEXT	ENDS
;	COMDAT __imp_?StaticClass@AGameInfo@@SAPAVUClass@@XZ
_TEXT	SEGMENT PARA USE32 PUBLIC 'CODE'
_TEXT	ENDS
;	COMDAT __imp_??2AGameInfo@@SAPAXIPAW4EInternal@@@Z
_TEXT	SEGMENT PARA USE32 PUBLIC 'CODE'
_TEXT	ENDS
;	COMDAT __imp_??1AGameInfo@@UAE@XZ
_TEXT	SEGMENT PARA USE32 PUBLIC 'CODE'
_TEXT	ENDS
;	COMDAT __imp_??0AGameInfo@@IAE@XZ
_TEXT	SEGMENT PARA USE32 PUBLIC 'CODE'
_TEXT	ENDS
;	COMDAT ??0AGameInfo_eventLoginNewClass_Parms@@QAE@XZ
_TEXT	SEGMENT PARA USE32 PUBLIC 'CODE'
_TEXT	ENDS
;	COMDAT ??1AGameInfo_eventLoginNewClass_Parms@@QAE@XZ
_TEXT	SEGMENT PARA USE32 PUBLIC 'CODE'
_TEXT	ENDS
;	COMDAT ??0AGameInfo_eventLogin_Parms@@QAE@XZ
_TEXT	SEGMENT PARA USE32 PUBLIC 'CODE'
_TEXT	ENDS
;	COMDAT ??1AGameInfo_eventLogin_Parms@@QAE@XZ
_TEXT	SEGMENT PARA USE32 PUBLIC 'CODE'
_TEXT	ENDS
;	COMDAT ??0AGameInfo_eventPreLogin_Parms@@QAE@XZ
_TEXT	SEGMENT PARA USE32 PUBLIC 'CODE'
_TEXT	ENDS
;	COMDAT ??1AGameInfo_eventPreLogin_Parms@@QAE@XZ
_TEXT	SEGMENT PARA USE32 PUBLIC 'CODE'
_TEXT	ENDS
;	COMDAT ??0AGameInfo_eventGetBeaconText_Parms@@QAE@XZ
_TEXT	SEGMENT PARA USE32 PUBLIC 'CODE'
_TEXT	ENDS
;	COMDAT ??1AGameInfo_eventGetBeaconText_Parms@@QAE@XZ
_TEXT	SEGMENT PARA USE32 PUBLIC 'CODE'
_TEXT	ENDS
;	COMDAT ??0AGameInfo_eventInitGame_Parms@@QAE@XZ
_TEXT	SEGMENT PARA USE32 PUBLIC 'CODE'
_TEXT	ENDS
;	COMDAT ??1AGameInfo_eventInitGame_Parms@@QAE@XZ
_TEXT	SEGMENT PARA USE32 PUBLIC 'CODE'
_TEXT	ENDS
;	COMDAT ??_GAGameInfo@@UAEPAXI@Z
_TEXT	SEGMENT PARA USE32 PUBLIC 'CODE'
_TEXT	ENDS
;	COMDAT __imp_?StaticClass@AMaterial@@SAPAVUClass@@XZ
_TEXT	SEGMENT PARA USE32 PUBLIC 'CODE'
_TEXT	ENDS
;	COMDAT __imp_??2AMaterial@@SAPAXIPAW4EInternal@@@Z
_TEXT	SEGMENT PARA USE32 PUBLIC 'CODE'
_TEXT	ENDS
;	COMDAT __imp_??1AMaterial@@UAE@XZ
_TEXT	SEGMENT PARA USE32 PUBLIC 'CODE'
_TEXT	ENDS
;	COMDAT __imp_??0AMaterial@@IAE@XZ
_TEXT	SEGMENT PARA USE32 PUBLIC 'CODE'
_TEXT	ENDS
;	COMDAT ??_GAMaterial@@UAEPAXI@Z
_TEXT	SEGMENT PARA USE32 PUBLIC 'CODE'
_TEXT	ENDS
;	COMDAT ??0FDamageCategoryEffectStruct@@QAE@XZ
_TEXT	SEGMENT PARA USE32 PUBLIC 'CODE'
_TEXT	ENDS
;	COMDAT __imp_?StaticClass@AFocalPoint@@SAPAVUClass@@XZ
_TEXT	SEGMENT PARA USE32 PUBLIC 'CODE'
_TEXT	ENDS
;	COMDAT __imp_??2AFocalPoint@@SAPAXIPAW4EInternal@@@Z
_TEXT	SEGMENT PARA USE32 PUBLIC 'CODE'
_TEXT	ENDS
;	COMDAT __imp_??1AFocalPoint@@UAE@XZ
_TEXT	SEGMENT PARA USE32 PUBLIC 'CODE'
_TEXT	ENDS
;	COMDAT ??_GAFocalPoint@@UAEPAXI@Z
_TEXT	SEGMENT PARA USE32 PUBLIC 'CODE'
_TEXT	ENDS
;	COMDAT __imp_??0AFocalPoint@@QAE@XZ
_TEXT	SEGMENT PARA USE32 PUBLIC 'CODE'
_TEXT	ENDS
;	COMDAT __imp_?StaticClass@ALight@@SAPAVUClass@@XZ
_TEXT	SEGMENT PARA USE32 PUBLIC 'CODE'
_TEXT	ENDS
;	COMDAT __imp_??2ALight@@SAPAXIPAW4EInternal@@@Z
_TEXT	SEGMENT PARA USE32 PUBLIC 'CODE'
_TEXT	ENDS
;	COMDAT __imp_??1ALight@@UAE@XZ
_TEXT	SEGMENT PARA USE32 PUBLIC 'CODE'
_TEXT	ENDS
;	COMDAT __imp_??0ALight@@IAE@XZ
_TEXT	SEGMENT PARA USE32 PUBLIC 'CODE'
_TEXT	ENDS
;	COMDAT ??_GALight@@UAEPAXI@Z
_TEXT	SEGMENT PARA USE32 PUBLIC 'CODE'
_TEXT	ENDS
;	COMDAT __imp_?StaticClass@AFlareLight@@SAPAVUClass@@XZ
_TEXT	SEGMENT PARA USE32 PUBLIC 'CODE'
_TEXT	ENDS
;	COMDAT __imp_??2AFlareLight@@SAPAXIPAW4EInternal@@@Z
_TEXT	SEGMENT PARA USE32 PUBLIC 'CODE'
_TEXT	ENDS
;	COMDAT __imp_??1AFlareLight@@UAE@XZ
_TEXT	SEGMENT PARA USE32 PUBLIC 'CODE'
_TEXT	ENDS
;	COMDAT __imp_??0AFlareLight@@IAE@XZ
_TEXT	SEGMENT PARA USE32 PUBLIC 'CODE'
_TEXT	ENDS
;	COMDAT ??_GAFlareLight@@UAEPAXI@Z
_TEXT	SEGMENT PARA USE32 PUBLIC 'CODE'
_TEXT	ENDS
;	COMDAT __imp_?StaticClass@ATriggerLight@@SAPAVUClass@@XZ
_TEXT	SEGMENT PARA USE32 PUBLIC 'CODE'
_TEXT	ENDS
;	COMDAT __imp_??2ATriggerLight@@SAPAXIPAW4EInternal@@@Z
_TEXT	SEGMENT PARA USE32 PUBLIC 'CODE'
_TEXT	ENDS
;	COMDAT __imp_??1ATriggerLight@@UAE@XZ
_TEXT	SEGMENT PARA USE32 PUBLIC 'CODE'
_TEXT	ENDS
;	COMDAT __imp_??0ATriggerLight@@IAE@XZ
_TEXT	SEGMENT PARA USE32 PUBLIC 'CODE'
_TEXT	ENDS
;	COMDAT ??_GATriggerLight@@UAEPAXI@Z
_TEXT	SEGMENT PARA USE32 PUBLIC 'CODE'
_TEXT	ENDS
;	COMDAT __imp_?StaticClass@ADamageType@@SAPAVUClass@@XZ
_TEXT	SEGMENT PARA USE32 PUBLIC 'CODE'
_TEXT	ENDS
;	COMDAT __imp_??2ADamageType@@SAPAXIPAW4EInternal@@@Z
_TEXT	SEGMENT PARA USE32 PUBLIC 'CODE'
_TEXT	ENDS
;	COMDAT __imp_??1ADamageType@@UAE@XZ
_TEXT	SEGMENT PARA USE32 PUBLIC 'CODE'
_TEXT	ENDS
;	COMDAT __imp_??0ADamageType@@IAE@XZ
_TEXT	SEGMENT PARA USE32 PUBLIC 'CODE'
_TEXT	ENDS
;	COMDAT ??_GADamageType@@UAEPAXI@Z
_TEXT	SEGMENT PARA USE32 PUBLIC 'CODE'
_TEXT	ENDS
;	COMDAT __imp_?StaticClass@AKeypoint@@SAPAVUClass@@XZ
_TEXT	SEGMENT PARA USE32 PUBLIC 'CODE'
_TEXT	ENDS
;	COMDAT __imp_??2AKeypoint@@SAPAXIPAW4EInternal@@@Z
_TEXT	SEGMENT PARA USE32 PUBLIC 'CODE'
_TEXT	ENDS
;	COMDAT __imp_??1AKeypoint@@UAE@XZ
_TEXT	SEGMENT PARA USE32 PUBLIC 'CODE'
_TEXT	ENDS
;	COMDAT __imp_??0AKeypoint@@IAE@XZ
_TEXT	SEGMENT PARA USE32 PUBLIC 'CODE'
_TEXT	ENDS
;	COMDAT ??_GAKeypoint@@UAEPAXI@Z
_TEXT	SEGMENT PARA USE32 PUBLIC 'CODE'
_TEXT	ENDS
;	COMDAT __imp_?StaticClass@AInterpolationStation@@SAPAVUClass@@XZ
_TEXT	SEGMENT PARA USE32 PUBLIC 'CODE'
_TEXT	ENDS
;	COMDAT __imp_??2AInterpolationStation@@SAPAXIPAW4EInternal@@@Z
_TEXT	SEGMENT PARA USE32 PUBLIC 'CODE'
_TEXT	ENDS
;	COMDAT __imp_??1AInterpolationStation@@UAE@XZ
_TEXT	SEGMENT PARA USE32 PUBLIC 'CODE'
_TEXT	ENDS
;	COMDAT __imp_??0AInterpolationStation@@IAE@XZ
_TEXT	SEGMENT PARA USE32 PUBLIC 'CODE'
_TEXT	ENDS
;	COMDAT ??_GAInterpolationStation@@UAEPAXI@Z
_TEXT	SEGMENT PARA USE32 PUBLIC 'CODE'
_TEXT	ENDS
;	COMDAT __imp_?StaticClass@Alocationid@@SAPAVUClass@@XZ
_TEXT	SEGMENT PARA USE32 PUBLIC 'CODE'
_TEXT	ENDS
;	COMDAT __imp_??2Alocationid@@SAPAXIPAW4EInternal@@@Z
_TEXT	SEGMENT PARA USE32 PUBLIC 'CODE'
_TEXT	ENDS
;	COMDAT __imp_??1Alocationid@@UAE@XZ
_TEXT	SEGMENT PARA USE32 PUBLIC 'CODE'
_TEXT	ENDS
;	COMDAT __imp_??0Alocationid@@IAE@XZ
_TEXT	SEGMENT PARA USE32 PUBLIC 'CODE'
_TEXT	ENDS
;	COMDAT ??_GAlocationid@@UAEPAXI@Z
_TEXT	SEGMENT PARA USE32 PUBLIC 'CODE'
_TEXT	ENDS
;	COMDAT __imp_?StaticClass@AInterpolationPoint@@SAPAVUClass@@XZ
_TEXT	SEGMENT PARA USE32 PUBLIC 'CODE'
_TEXT	ENDS
;	COMDAT __imp_??2AInterpolationPoint@@SAPAXIPAW4EInternal@@@Z
_TEXT	SEGMENT PARA USE32 PUBLIC 'CODE'
_TEXT	ENDS
;	COMDAT __imp_??1AInterpolationPoint@@UAE@XZ
_TEXT	SEGMENT PARA USE32 PUBLIC 'CODE'
_TEXT	ENDS
;	COMDAT __imp_??0AInterpolationPoint@@IAE@XZ
_TEXT	SEGMENT PARA USE32 PUBLIC 'CODE'
_TEXT	ENDS
;	COMDAT ??_GAInterpolationPoint@@UAEPAXI@Z
_TEXT	SEGMENT PARA USE32 PUBLIC 'CODE'
_TEXT	ENDS
;	COMDAT __imp_?StaticClass@APolyMarker@@SAPAVUClass@@XZ
_TEXT	SEGMENT PARA USE32 PUBLIC 'CODE'
_TEXT	ENDS
;	COMDAT __imp_??2APolyMarker@@SAPAXIPAW4EInternal@@@Z
_TEXT	SEGMENT PARA USE32 PUBLIC 'CODE'
_TEXT	ENDS
;	COMDAT __imp_??1APolyMarker@@UAE@XZ
_TEXT	SEGMENT PARA USE32 PUBLIC 'CODE'
_TEXT	ENDS
;	COMDAT __imp_??0APolyMarker@@IAE@XZ
_TEXT	SEGMENT PARA USE32 PUBLIC 'CODE'
_TEXT	ENDS
;	COMDAT ??_GAPolyMarker@@UAEPAXI@Z
_TEXT	SEGMENT PARA USE32 PUBLIC 'CODE'
_TEXT	ENDS
;	COMDAT __imp_?StaticClass@AClipMarker@@SAPAVUClass@@XZ
_TEXT	SEGMENT PARA USE32 PUBLIC 'CODE'
_TEXT	ENDS
;	COMDAT __imp_??2AClipMarker@@SAPAXIPAW4EInternal@@@Z
_TEXT	SEGMENT PARA USE32 PUBLIC 'CODE'
_TEXT	ENDS
;	COMDAT __imp_??1AClipMarker@@UAE@XZ
_TEXT	SEGMENT PARA USE32 PUBLIC 'CODE'
_TEXT	ENDS
;	COMDAT __imp_??0AClipMarker@@IAE@XZ
_TEXT	SEGMENT PARA USE32 PUBLIC 'CODE'
_TEXT	ENDS
;	COMDAT ??_GAClipMarker@@UAEPAXI@Z
_TEXT	SEGMENT PARA USE32 PUBLIC 'CODE'
_TEXT	ENDS
;	COMDAT __imp_?StaticClass@AMeshEffect@@SAPAVUClass@@XZ
_TEXT	SEGMENT PARA USE32 PUBLIC 'CODE'
_TEXT	ENDS
;	COMDAT __imp_??2AMeshEffect@@SAPAXIPAW4EInternal@@@Z
_TEXT	SEGMENT PARA USE32 PUBLIC 'CODE'
_TEXT	ENDS
;	COMDAT __imp_??1AMeshEffect@@UAE@XZ
_TEXT	SEGMENT PARA USE32 PUBLIC 'CODE'
_TEXT	ENDS
;	COMDAT __imp_??0AMeshEffect@@IAE@XZ
_TEXT	SEGMENT PARA USE32 PUBLIC 'CODE'
_TEXT	ENDS
;	COMDAT ??0AMeshEffect_eventEvalVert_Parms@@QAE@XZ
_TEXT	SEGMENT PARA USE32 PUBLIC 'CODE'
_TEXT	ENDS
;	COMDAT ??_GAMeshEffect@@UAEPAXI@Z
_TEXT	SEGMENT PARA USE32 PUBLIC 'CODE'
_TEXT	ENDS
;	COMDAT __imp_?StaticClass@ASpawnNotify@@SAPAVUClass@@XZ
_TEXT	SEGMENT PARA USE32 PUBLIC 'CODE'
_TEXT	ENDS
;	COMDAT __imp_??2ASpawnNotify@@SAPAXIPAW4EInternal@@@Z
_TEXT	SEGMENT PARA USE32 PUBLIC 'CODE'
_TEXT	ENDS
;	COMDAT __imp_??1ASpawnNotify@@UAE@XZ
_TEXT	SEGMENT PARA USE32 PUBLIC 'CODE'
_TEXT	ENDS
;	COMDAT __imp_??0ASpawnNotify@@IAE@XZ
_TEXT	SEGMENT PARA USE32 PUBLIC 'CODE'
_TEXT	ENDS
;	COMDAT ??_GASpawnNotify@@UAEPAXI@Z
_TEXT	SEGMENT PARA USE32 PUBLIC 'CODE'
_TEXT	ENDS
;	COMDAT __imp_?StaticClass@ANavigationPoint@@SAPAVUClass@@XZ
_TEXT	SEGMENT PARA USE32 PUBLIC 'CODE'
_TEXT	ENDS
;	COMDAT __imp_??2ANavigationPoint@@SAPAXIPAW4EInternal@@@Z
_TEXT	SEGMENT PARA USE32 PUBLIC 'CODE'
_TEXT	ENDS
;	COMDAT __imp_??1ANavigationPoint@@UAE@XZ
_TEXT	SEGMENT PARA USE32 PUBLIC 'CODE'
_TEXT	ENDS
;	COMDAT __imp_??0ANavigationPoint@@IAE@XZ
_TEXT	SEGMENT PARA USE32 PUBLIC 'CODE'
_TEXT	ENDS
;	COMDAT ??_GANavigationPoint@@UAEPAXI@Z
_TEXT	SEGMENT PARA USE32 PUBLIC 'CODE'
_TEXT	ENDS
;	COMDAT __imp_?StaticClass@ALiftExit@@SAPAVUClass@@XZ
_TEXT	SEGMENT PARA USE32 PUBLIC 'CODE'
_TEXT	ENDS
;	COMDAT __imp_??2ALiftExit@@SAPAXIPAW4EInternal@@@Z
_TEXT	SEGMENT PARA USE32 PUBLIC 'CODE'
_TEXT	ENDS
;	COMDAT __imp_??1ALiftExit@@UAE@XZ
_TEXT	SEGMENT PARA USE32 PUBLIC 'CODE'
_TEXT	ENDS
;	COMDAT __imp_??0ALiftExit@@IAE@XZ
_TEXT	SEGMENT PARA USE32 PUBLIC 'CODE'
_TEXT	ENDS
;	COMDAT ??_GALiftExit@@UAEPAXI@Z
_TEXT	SEGMENT PARA USE32 PUBLIC 'CODE'
_TEXT	ENDS
;	COMDAT __imp_?StaticClass@ALiftCenter@@SAPAVUClass@@XZ
_TEXT	SEGMENT PARA USE32 PUBLIC 'CODE'
_TEXT	ENDS
;	COMDAT __imp_??2ALiftCenter@@SAPAXIPAW4EInternal@@@Z
_TEXT	SEGMENT PARA USE32 PUBLIC 'CODE'
_TEXT	ENDS
;	COMDAT __imp_??1ALiftCenter@@UAE@XZ
_TEXT	SEGMENT PARA USE32 PUBLIC 'CODE'
_TEXT	ENDS
;	COMDAT __imp_??0ALiftCenter@@IAE@XZ
_TEXT	SEGMENT PARA USE32 PUBLIC 'CODE'
_TEXT	ENDS
;	COMDAT ??_GALiftCenter@@UAEPAXI@Z
_TEXT	SEGMENT PARA USE32 PUBLIC 'CODE'
_TEXT	ENDS
;	COMDAT __imp_?StaticClass@AWarpZoneMarker@@SAPAVUClass@@XZ
_TEXT	SEGMENT PARA USE32 PUBLIC 'CODE'
_TEXT	ENDS
;	COMDAT __imp_??2AWarpZoneMarker@@SAPAXIPAW4EInternal@@@Z
_TEXT	SEGMENT PARA USE32 PUBLIC 'CODE'
_TEXT	ENDS
;	COMDAT __imp_??1AWarpZoneMarker@@UAE@XZ
_TEXT	SEGMENT PARA USE32 PUBLIC 'CODE'
_TEXT	ENDS
;	COMDAT __imp_??0AWarpZoneMarker@@IAE@XZ
_TEXT	SEGMENT PARA USE32 PUBLIC 'CODE'
_TEXT	ENDS
;	COMDAT ??_GAWarpZoneMarker@@UAEPAXI@Z
_TEXT	SEGMENT PARA USE32 PUBLIC 'CODE'
_TEXT	ENDS
;	COMDAT __imp_?StaticClass@AButtonMarker@@SAPAVUClass@@XZ
_TEXT	SEGMENT PARA USE32 PUBLIC 'CODE'
_TEXT	ENDS
;	COMDAT __imp_??2AButtonMarker@@SAPAXIPAW4EInternal@@@Z
_TEXT	SEGMENT PARA USE32 PUBLIC 'CODE'
_TEXT	ENDS
;	COMDAT __imp_??1AButtonMarker@@UAE@XZ
_TEXT	SEGMENT PARA USE32 PUBLIC 'CODE'
_TEXT	ENDS
;	COMDAT __imp_??0AButtonMarker@@IAE@XZ
_TEXT	SEGMENT PARA USE32 PUBLIC 'CODE'
_TEXT	ENDS
;	COMDAT ??_GAButtonMarker@@UAEPAXI@Z
_TEXT	SEGMENT PARA USE32 PUBLIC 'CODE'
_TEXT	ENDS
;	COMDAT __imp_?StaticClass@ATriggerMarker@@SAPAVUClass@@XZ
_TEXT	SEGMENT PARA USE32 PUBLIC 'CODE'
_TEXT	ENDS
;	COMDAT __imp_??2ATriggerMarker@@SAPAXIPAW4EInternal@@@Z
_TEXT	SEGMENT PARA USE32 PUBLIC 'CODE'
_TEXT	ENDS
;	COMDAT __imp_??1ATriggerMarker@@UAE@XZ
_TEXT	SEGMENT PARA USE32 PUBLIC 'CODE'
_TEXT	ENDS
;	COMDAT __imp_??0ATriggerMarker@@IAE@XZ
_TEXT	SEGMENT PARA USE32 PUBLIC 'CODE'
_TEXT	ENDS
;	COMDAT ??_GATriggerMarker@@UAEPAXI@Z
_TEXT	SEGMENT PARA USE32 PUBLIC 'CODE'
_TEXT	ENDS
;	COMDAT __imp_?StaticClass@AInventorySpot@@SAPAVUClass@@XZ
_TEXT	SEGMENT PARA USE32 PUBLIC 'CODE'
_TEXT	ENDS
;	COMDAT __imp_??2AInventorySpot@@SAPAXIPAW4EInternal@@@Z
_TEXT	SEGMENT PARA USE32 PUBLIC 'CODE'
_TEXT	ENDS
;	COMDAT __imp_??1AInventorySpot@@UAE@XZ
_TEXT	SEGMENT PARA USE32 PUBLIC 'CODE'
_TEXT	ENDS
;	COMDAT __imp_??0AInventorySpot@@IAE@XZ
_TEXT	SEGMENT PARA USE32 PUBLIC 'CODE'
_TEXT	ENDS
;	COMDAT ??_GAInventorySpot@@UAEPAXI@Z
_TEXT	SEGMENT PARA USE32 PUBLIC 'CODE'
_TEXT	ENDS
;	COMDAT __imp_?StaticClass@APlayerStart@@SAPAVUClass@@XZ
_TEXT	SEGMENT PARA USE32 PUBLIC 'CODE'
_TEXT	ENDS
;	COMDAT __imp_??2APlayerStart@@SAPAXIPAW4EInternal@@@Z
_TEXT	SEGMENT PARA USE32 PUBLIC 'CODE'
_TEXT	ENDS
;	COMDAT __imp_??1APlayerStart@@UAE@XZ
_TEXT	SEGMENT PARA USE32 PUBLIC 'CODE'
_TEXT	ENDS
;	COMDAT __imp_??0APlayerStart@@IAE@XZ
_TEXT	SEGMENT PARA USE32 PUBLIC 'CODE'
_TEXT	ENDS
;	COMDAT ??_GAPlayerStart@@UAEPAXI@Z
_TEXT	SEGMENT PARA USE32 PUBLIC 'CODE'
_TEXT	ENDS
;	COMDAT __imp_?StaticClass@ATeleporter@@SAPAVUClass@@XZ
_TEXT	SEGMENT PARA USE32 PUBLIC 'CODE'
_TEXT	ENDS
;	COMDAT __imp_??2ATeleporter@@SAPAXIPAW4EInternal@@@Z
_TEXT	SEGMENT PARA USE32 PUBLIC 'CODE'
_TEXT	ENDS
;	COMDAT __imp_??1ATeleporter@@UAE@XZ
_TEXT	SEGMENT PARA USE32 PUBLIC 'CODE'
_TEXT	ENDS
;	COMDAT __imp_??0ATeleporter@@IAE@XZ
_TEXT	SEGMENT PARA USE32 PUBLIC 'CODE'
_TEXT	ENDS
;	COMDAT ??_GATeleporter@@UAEPAXI@Z
_TEXT	SEGMENT PARA USE32 PUBLIC 'CODE'
_TEXT	ENDS
;	COMDAT __imp_?StaticClass@APathNode@@SAPAVUClass@@XZ
_TEXT	SEGMENT PARA USE32 PUBLIC 'CODE'
_TEXT	ENDS
;	COMDAT __imp_??2APathNode@@SAPAXIPAW4EInternal@@@Z
_TEXT	SEGMENT PARA USE32 PUBLIC 'CODE'
_TEXT	ENDS
;	COMDAT __imp_??1APathNode@@UAE@XZ
_TEXT	SEGMENT PARA USE32 PUBLIC 'CODE'
_TEXT	ENDS
;	COMDAT __imp_??0APathNode@@IAE@XZ
_TEXT	SEGMENT PARA USE32 PUBLIC 'CODE'
_TEXT	ENDS
;	COMDAT ??_GAPathNode@@UAEPAXI@Z
_TEXT	SEGMENT PARA USE32 PUBLIC 'CODE'
_TEXT	ENDS
;	COMDAT __imp_?StaticClass@AHUD@@SAPAVUClass@@XZ
_TEXT	SEGMENT PARA USE32 PUBLIC 'CODE'
_TEXT	ENDS
;	COMDAT __imp_??2AHUD@@SAPAXIPAW4EInternal@@@Z
_TEXT	SEGMENT PARA USE32 PUBLIC 'CODE'
_TEXT	ENDS
;	COMDAT __imp_??1AHUD@@UAE@XZ
_TEXT	SEGMENT PARA USE32 PUBLIC 'CODE'
_TEXT	ENDS
;	COMDAT __imp_??0AHUD@@IAE@XZ
_TEXT	SEGMENT PARA USE32 PUBLIC 'CODE'
_TEXT	ENDS
;	COMDAT ??_GAHUD@@UAEPAXI@Z
_TEXT	SEGMENT PARA USE32 PUBLIC 'CODE'
_TEXT	ENDS
;	COMDAT __imp_?StaticClass@ATriggers@@SAPAVUClass@@XZ
_TEXT	SEGMENT PARA USE32 PUBLIC 'CODE'
_TEXT	ENDS
;	COMDAT __imp_??2ATriggers@@SAPAXIPAW4EInternal@@@Z
_TEXT	SEGMENT PARA USE32 PUBLIC 'CODE'
_TEXT	ENDS
;	COMDAT __imp_??1ATriggers@@UAE@XZ
_TEXT	SEGMENT PARA USE32 PUBLIC 'CODE'
_TEXT	ENDS
;	COMDAT __imp_??0ATriggers@@IAE@XZ
_TEXT	SEGMENT PARA USE32 PUBLIC 'CODE'
_TEXT	ENDS
;	COMDAT ??_GATriggers@@UAEPAXI@Z
_TEXT	SEGMENT PARA USE32 PUBLIC 'CODE'
_TEXT	ENDS
;	COMDAT __imp_?StaticClass@ATrigger@@SAPAVUClass@@XZ
_TEXT	SEGMENT PARA USE32 PUBLIC 'CODE'
_TEXT	ENDS
;	COMDAT __imp_??2ATrigger@@SAPAXIPAW4EInternal@@@Z
_TEXT	SEGMENT PARA USE32 PUBLIC 'CODE'
_TEXT	ENDS
;	COMDAT __imp_??1ATrigger@@UAE@XZ
_TEXT	SEGMENT PARA USE32 PUBLIC 'CODE'
_TEXT	ENDS
;	COMDAT __imp_??0ATrigger@@IAE@XZ
_TEXT	SEGMENT PARA USE32 PUBLIC 'CODE'
_TEXT	ENDS
;	COMDAT ??_GATrigger@@UAEPAXI@Z
_TEXT	SEGMENT PARA USE32 PUBLIC 'CODE'
_TEXT	ENDS
;	COMDAT __imp_?StaticClass@ADukeNet@@SAPAVUClass@@XZ
_TEXT	SEGMENT PARA USE32 PUBLIC 'CODE'
_TEXT	ENDS
;	COMDAT __imp_??2ADukeNet@@SAPAXIPAW4EInternal@@@Z
_TEXT	SEGMENT PARA USE32 PUBLIC 'CODE'
_TEXT	ENDS
;	COMDAT __imp_??1ADukeNet@@UAE@XZ
_TEXT	SEGMENT PARA USE32 PUBLIC 'CODE'
_TEXT	ENDS
;	COMDAT __imp_??0ADukeNet@@QAE@XZ
_TEXT	SEGMENT PARA USE32 PUBLIC 'CODE'
_TEXT	ENDS
;	COMDAT ??0ADukeNet_eventdncServerCommand_Parms@@QAE@XZ
_TEXT	SEGMENT PARA USE32 PUBLIC 'CODE'
_TEXT	ENDS
;	COMDAT ??1ADukeNet_eventdncServerCommand_Parms@@QAE@XZ
_TEXT	SEGMENT PARA USE32 PUBLIC 'CODE'
_TEXT	ENDS
;	COMDAT ??_GADukeNet@@UAEPAXI@Z
_TEXT	SEGMENT PARA USE32 PUBLIC 'CODE'
_TEXT	ENDS
;	COMDAT __imp_?StaticClass@ARenderActor@@SAPAVUClass@@XZ
_TEXT	SEGMENT PARA USE32 PUBLIC 'CODE'
_TEXT	ENDS
;	COMDAT __imp_??2ARenderActor@@SAPAXIPAW4EInternal@@@Z
_TEXT	SEGMENT PARA USE32 PUBLIC 'CODE'
_TEXT	ENDS
;	COMDAT __imp_??1ARenderActor@@UAE@XZ
_TEXT	SEGMENT PARA USE32 PUBLIC 'CODE'
_TEXT	ENDS
;	COMDAT ??_GARenderActor@@UAEPAXI@Z
_TEXT	SEGMENT PARA USE32 PUBLIC 'CODE'
_TEXT	ENDS
;	COMDAT __imp_??0ARenderActor@@QAE@XZ
_TEXT	SEGMENT PARA USE32 PUBLIC 'CODE'
_TEXT	ENDS
;	COMDAT __imp_?StaticClass@APawn@@SAPAVUClass@@XZ
_TEXT	SEGMENT PARA USE32 PUBLIC 'CODE'
_TEXT	ENDS
;	COMDAT __imp_??2APawn@@SAPAXIPAW4EInternal@@@Z
_TEXT	SEGMENT PARA USE32 PUBLIC 'CODE'
_TEXT	ENDS
;	COMDAT __imp_??1APawn@@UAE@XZ
_TEXT	SEGMENT PARA USE32 PUBLIC 'CODE'
_TEXT	ENDS
;	COMDAT __imp_??0APawn@@QAE@XZ
_TEXT	SEGMENT PARA USE32 PUBLIC 'CODE'
_TEXT	ENDS
;	COMDAT ??0APawn_eventClientHearSound_Parms@@QAE@XZ
_TEXT	SEGMENT PARA USE32 PUBLIC 'CODE'
_TEXT	ENDS
;	COMDAT ??0APawn_eventWalkTexture_Parms@@QAE@XZ
_TEXT	SEGMENT PARA USE32 PUBLIC 'CODE'
_TEXT	ENDS
;	COMDAT ??0APawn_eventTeamMessage_Parms@@QAE@XZ
_TEXT	SEGMENT PARA USE32 PUBLIC 'CODE'
_TEXT	ENDS
;	COMDAT ??1APawn_eventTeamMessage_Parms@@QAE@XZ
_TEXT	SEGMENT PARA USE32 PUBLIC 'CODE'
_TEXT	ENDS
;	COMDAT ??0APawn_eventClientMessage_Parms@@QAE@XZ
_TEXT	SEGMENT PARA USE32 PUBLIC 'CODE'
_TEXT	ENDS
;	COMDAT ??1APawn_eventClientMessage_Parms@@QAE@XZ
_TEXT	SEGMENT PARA USE32 PUBLIC 'CODE'
_TEXT	ENDS
;	COMDAT ??_GAPawn@@UAEPAXI@Z
_TEXT	SEGMENT PARA USE32 PUBLIC 'CODE'
_TEXT	ENDS
;	COMDAT __imp_??0FSFacialExpression@@QAE@XZ
_TEXT	SEGMENT PARA USE32 PUBLIC 'CODE'
_TEXT	ENDS
;	COMDAT __imp_??0FFacialNoiseInfo@@QAE@XZ
_TEXT	SEGMENT PARA USE32 PUBLIC 'CODE'
_TEXT	ENDS
;	COMDAT __imp_??0FSFacialExpressionFrame@@QAE@XZ
_TEXT	SEGMENT PARA USE32 PUBLIC 'CODE'
_TEXT	ENDS
;	COMDAT __imp_?StaticClass@APlayerPawn@@SAPAVUClass@@XZ
_TEXT	SEGMENT PARA USE32 PUBLIC 'CODE'
_TEXT	ENDS
;	COMDAT __imp_??2APlayerPawn@@SAPAXIPAW4EInternal@@@Z
_TEXT	SEGMENT PARA USE32 PUBLIC 'CODE'
_TEXT	ENDS
;	COMDAT __imp_??1APlayerPawn@@UAE@XZ
_TEXT	SEGMENT PARA USE32 PUBLIC 'CODE'
_TEXT	ENDS
;	COMDAT ??0APlayerPawn_eventPlayerCalcView_Parms@@QAE@XZ
_TEXT	SEGMENT PARA USE32 PUBLIC 'CODE'
_TEXT	ENDS
;	COMDAT ??0APlayerPawn_eventClientTravel_Parms@@QAE@XZ
_TEXT	SEGMENT PARA USE32 PUBLIC 'CODE'
_TEXT	ENDS
;	COMDAT ??1APlayerPawn_eventClientTravel_Parms@@QAE@XZ
_TEXT	SEGMENT PARA USE32 PUBLIC 'CODE'
_TEXT	ENDS
;	COMDAT ??_GAPlayerPawn@@UAEPAXI@Z
_TEXT	SEGMENT PARA USE32 PUBLIC 'CODE'
_TEXT	ENDS
;	COMDAT __imp_??0APlayerPawn@@QAE@XZ
_TEXT	SEGMENT PARA USE32 PUBLIC 'CODE'
_TEXT	ENDS
;	COMDAT __imp_?StaticClass@ACamera@@SAPAVUClass@@XZ
_TEXT	SEGMENT PARA USE32 PUBLIC 'CODE'
_TEXT	ENDS
;	COMDAT __imp_??2ACamera@@SAPAXIPAW4EInternal@@@Z
_TEXT	SEGMENT PARA USE32 PUBLIC 'CODE'
_TEXT	ENDS
;	COMDAT __imp_??1ACamera@@UAE@XZ
_TEXT	SEGMENT PARA USE32 PUBLIC 'CODE'
_TEXT	ENDS
;	COMDAT __imp_??0ACamera@@QAE@XZ
_TEXT	SEGMENT PARA USE32 PUBLIC 'CODE'
_TEXT	ENDS
;	COMDAT ??_GACamera@@UAEPAXI@Z
_TEXT	SEGMENT PARA USE32 PUBLIC 'CODE'
_TEXT	ENDS
;	COMDAT __imp_?StaticClass@AScout@@SAPAVUClass@@XZ
_TEXT	SEGMENT PARA USE32 PUBLIC 'CODE'
_TEXT	ENDS
;	COMDAT __imp_??2AScout@@SAPAXIPAW4EInternal@@@Z
_TEXT	SEGMENT PARA USE32 PUBLIC 'CODE'
_TEXT	ENDS
;	COMDAT __imp_??1AScout@@UAE@XZ
_TEXT	SEGMENT PARA USE32 PUBLIC 'CODE'
_TEXT	ENDS
;	COMDAT __imp_??0AScout@@IAE@XZ
_TEXT	SEGMENT PARA USE32 PUBLIC 'CODE'
_TEXT	ENDS
;	COMDAT ??_GAScout@@UAEPAXI@Z
_TEXT	SEGMENT PARA USE32 PUBLIC 'CODE'
_TEXT	ENDS
;	COMDAT __imp_?StaticClass@ABrush@@SAPAVUClass@@XZ
_TEXT	SEGMENT PARA USE32 PUBLIC 'CODE'
_TEXT	ENDS
;	COMDAT __imp_??2ABrush@@SAPAXIPAW4EInternal@@@Z
_TEXT	SEGMENT PARA USE32 PUBLIC 'CODE'
_TEXT	ENDS
;	COMDAT __imp_??1ABrush@@UAE@XZ
_TEXT	SEGMENT PARA USE32 PUBLIC 'CODE'
_TEXT	ENDS
;	COMDAT __imp_??0ABrush@@QAE@XZ
_TEXT	SEGMENT PARA USE32 PUBLIC 'CODE'
_TEXT	ENDS
;	COMDAT __imp_?OldBuildCoords@ABrush@@UAEMPAVFModelCoords@@0@Z
_TEXT	SEGMENT PARA USE32 PUBLIC 'CODE'
_TEXT	ENDS
;	COMDAT __imp_?ToLocal@ABrush@@UBE?AVFCoords@@XZ
_TEXT	SEGMENT PARA USE32 PUBLIC 'CODE'
_TEXT	ENDS
;	COMDAT __imp_?ToWorld@ABrush@@UBE?AVFCoords@@XZ
_TEXT	SEGMENT PARA USE32 PUBLIC 'CODE'
_TEXT	ENDS
;	COMDAT __imp_?BuildCoords@ABrush@@UAEMPAVFModelCoords@@0@Z
_TEXT	SEGMENT PARA USE32 PUBLIC 'CODE'
_TEXT	ENDS
;	COMDAT __imp_?CopyPosRotScaleFrom@ABrush@@UAEXPAV1@@Z
_TEXT	SEGMENT PARA USE32 PUBLIC 'CODE'
_TEXT	ENDS
;	COMDAT ??_GABrush@@UAEPAXI@Z
_TEXT	SEGMENT PARA USE32 PUBLIC 'CODE'
_TEXT	ENDS
;	COMDAT __imp_?StaticClass@AMover@@SAPAVUClass@@XZ
_TEXT	SEGMENT PARA USE32 PUBLIC 'CODE'
_TEXT	ENDS
;	COMDAT __imp_??2AMover@@SAPAXIPAW4EInternal@@@Z
_TEXT	SEGMENT PARA USE32 PUBLIC 'CODE'
_TEXT	ENDS
;	COMDAT __imp_??1AMover@@UAE@XZ
_TEXT	SEGMENT PARA USE32 PUBLIC 'CODE'
_TEXT	ENDS
;	COMDAT __imp_?ToLocal@AMover@@UBE?AVFCoords@@XZ
_TEXT	SEGMENT PARA USE32 PUBLIC 'CODE'
_TEXT	ENDS
;	COMDAT __imp_?ToWorld@AMover@@UBE?AVFCoords@@XZ
_TEXT	SEGMENT PARA USE32 PUBLIC 'CODE'
_TEXT	ENDS
;	COMDAT __imp_?BuildCoords@AMover@@UAEMPAVFModelCoords@@0@Z
_TEXT	SEGMENT PARA USE32 PUBLIC 'CODE'
_TEXT	ENDS
;	COMDAT ??_GAMover@@UAEPAXI@Z
_TEXT	SEGMENT PARA USE32 PUBLIC 'CODE'
_TEXT	ENDS
;	COMDAT __imp_?StaticClass@ADoorMover@@SAPAVUClass@@XZ
_TEXT	SEGMENT PARA USE32 PUBLIC 'CODE'
_TEXT	ENDS
;	COMDAT __imp_??2ADoorMover@@SAPAXIPAW4EInternal@@@Z
_TEXT	SEGMENT PARA USE32 PUBLIC 'CODE'
_TEXT	ENDS
;	COMDAT __imp_??1ADoorMover@@UAE@XZ
_TEXT	SEGMENT PARA USE32 PUBLIC 'CODE'
_TEXT	ENDS
;	COMDAT ??_GADoorMover@@UAEPAXI@Z
_TEXT	SEGMENT PARA USE32 PUBLIC 'CODE'
_TEXT	ENDS
;	COMDAT __imp_??0ADoorMover@@QAE@XZ
_TEXT	SEGMENT PARA USE32 PUBLIC 'CODE'
_TEXT	ENDS
;	COMDAT __imp_?StaticClass@AMeshDecal@@SAPAVUClass@@XZ
_TEXT	SEGMENT PARA USE32 PUBLIC 'CODE'
_TEXT	ENDS
;	COMDAT __imp_??2AMeshDecal@@SAPAXIPAW4EInternal@@@Z
_TEXT	SEGMENT PARA USE32 PUBLIC 'CODE'
_TEXT	ENDS
;	COMDAT __imp_??1AMeshDecal@@UAE@XZ
_TEXT	SEGMENT PARA USE32 PUBLIC 'CODE'
_TEXT	ENDS
;	COMDAT __imp_??0AMeshDecal@@IAE@XZ
_TEXT	SEGMENT PARA USE32 PUBLIC 'CODE'
_TEXT	ENDS
;	COMDAT ??_GAMeshDecal@@UAEPAXI@Z
_TEXT	SEGMENT PARA USE32 PUBLIC 'CODE'
_TEXT	ENDS
;	COMDAT __imp_?StaticClass@AItem@@SAPAVUClass@@XZ
_TEXT	SEGMENT PARA USE32 PUBLIC 'CODE'
_TEXT	ENDS
;	COMDAT __imp_??2AItem@@SAPAXIPAW4EInternal@@@Z
_TEXT	SEGMENT PARA USE32 PUBLIC 'CODE'
_TEXT	ENDS
;	COMDAT __imp_??1AItem@@UAE@XZ
_TEXT	SEGMENT PARA USE32 PUBLIC 'CODE'
_TEXT	ENDS
;	COMDAT __imp_??0AItem@@IAE@XZ
_TEXT	SEGMENT PARA USE32 PUBLIC 'CODE'
_TEXT	ENDS
;	COMDAT ??_GAItem@@UAEPAXI@Z
_TEXT	SEGMENT PARA USE32 PUBLIC 'CODE'
_TEXT	ENDS
;	COMDAT __imp_?StaticClass@ADecoration@@SAPAVUClass@@XZ
_TEXT	SEGMENT PARA USE32 PUBLIC 'CODE'
_TEXT	ENDS
;	COMDAT __imp_??2ADecoration@@SAPAXIPAW4EInternal@@@Z
_TEXT	SEGMENT PARA USE32 PUBLIC 'CODE'
_TEXT	ENDS
;	COMDAT __imp_??1ADecoration@@UAE@XZ
_TEXT	SEGMENT PARA USE32 PUBLIC 'CODE'
_TEXT	ENDS
;	COMDAT __imp_??0ADecoration@@IAE@XZ
_TEXT	SEGMENT PARA USE32 PUBLIC 'CODE'
_TEXT	ENDS
;	COMDAT ??_GADecoration@@UAEPAXI@Z
_TEXT	SEGMENT PARA USE32 PUBLIC 'CODE'
_TEXT	ENDS
;	COMDAT __imp_??0FSThirdPersonInfo@@QAE@XZ
_TEXT	SEGMENT PARA USE32 PUBLIC 'CODE'
_TEXT	ENDS
;	COMDAT __imp_?StaticClass@ACarcass@@SAPAVUClass@@XZ
_TEXT	SEGMENT PARA USE32 PUBLIC 'CODE'
_TEXT	ENDS
;	COMDAT __imp_??2ACarcass@@SAPAXIPAW4EInternal@@@Z
_TEXT	SEGMENT PARA USE32 PUBLIC 'CODE'
_TEXT	ENDS
;	COMDAT __imp_??1ACarcass@@UAE@XZ
_TEXT	SEGMENT PARA USE32 PUBLIC 'CODE'
_TEXT	ENDS
;	COMDAT ??_GACarcass@@UAEPAXI@Z
_TEXT	SEGMENT PARA USE32 PUBLIC 'CODE'
_TEXT	ENDS
;	COMDAT __imp_??0ACarcass@@QAE@XZ
_TEXT	SEGMENT PARA USE32 PUBLIC 'CODE'
_TEXT	ENDS
;	COMDAT __imp_?StaticClass@ABoneRope@@SAPAVUClass@@XZ
_TEXT	SEGMENT PARA USE32 PUBLIC 'CODE'
_TEXT	ENDS
;	COMDAT __imp_??2ABoneRope@@SAPAXIPAW4EInternal@@@Z
_TEXT	SEGMENT PARA USE32 PUBLIC 'CODE'
_TEXT	ENDS
;	COMDAT __imp_??1ABoneRope@@UAE@XZ
_TEXT	SEGMENT PARA USE32 PUBLIC 'CODE'
_TEXT	ENDS
;	COMDAT ??_GABoneRope@@UAEPAXI@Z
_TEXT	SEGMENT PARA USE32 PUBLIC 'CODE'
_TEXT	ENDS
;	COMDAT __imp_?StaticClass@AParticleCollisionActor@@SAPAVUClass@@XZ
_TEXT	SEGMENT PARA USE32 PUBLIC 'CODE'
_TEXT	ENDS
;	COMDAT __imp_??2AParticleCollisionActor@@SAPAXIPAW4EInternal@@@Z
_TEXT	SEGMENT PARA USE32 PUBLIC 'CODE'
_TEXT	ENDS
;	COMDAT __imp_??1AParticleCollisionActor@@UAE@XZ
_TEXT	SEGMENT PARA USE32 PUBLIC 'CODE'
_TEXT	ENDS
;	COMDAT __imp_??0AParticleCollisionActor@@IAE@XZ
_TEXT	SEGMENT PARA USE32 PUBLIC 'CODE'
_TEXT	ENDS
;	COMDAT ??_GAParticleCollisionActor@@UAEPAXI@Z
_TEXT	SEGMENT PARA USE32 PUBLIC 'CODE'
_TEXT	ENDS
;	COMDAT __imp_?StaticClass@ADecal@@SAPAVUClass@@XZ
_TEXT	SEGMENT PARA USE32 PUBLIC 'CODE'
_TEXT	ENDS
;	COMDAT __imp_??2ADecal@@SAPAXIPAW4EInternal@@@Z
_TEXT	SEGMENT PARA USE32 PUBLIC 'CODE'
_TEXT	ENDS
;	COMDAT __imp_??1ADecal@@UAE@XZ
_TEXT	SEGMENT PARA USE32 PUBLIC 'CODE'
_TEXT	ENDS
;	COMDAT __imp_??0ADecal@@IAE@XZ
_TEXT	SEGMENT PARA USE32 PUBLIC 'CODE'
_TEXT	ENDS
;	COMDAT ??_GADecal@@UAEPAXI@Z
_TEXT	SEGMENT PARA USE32 PUBLIC 'CODE'
_TEXT	ENDS
;	COMDAT __imp_?StaticClass@AInventory@@SAPAVUClass@@XZ
_TEXT	SEGMENT PARA USE32 PUBLIC 'CODE'
_TEXT	ENDS
;	COMDAT __imp_??2AInventory@@SAPAXIPAW4EInternal@@@Z
_TEXT	SEGMENT PARA USE32 PUBLIC 'CODE'
_TEXT	ENDS
;	COMDAT __imp_??1AInventory@@UAE@XZ
_TEXT	SEGMENT PARA USE32 PUBLIC 'CODE'
_TEXT	ENDS
;	COMDAT __imp_??0AInventory@@QAE@XZ
_TEXT	SEGMENT PARA USE32 PUBLIC 'CODE'
_TEXT	ENDS
;	COMDAT ??_GAInventory@@UAEPAXI@Z
_TEXT	SEGMENT PARA USE32 PUBLIC 'CODE'
_TEXT	ENDS
;	COMDAT __imp_?StaticClass@AWeapon@@SAPAVUClass@@XZ
_TEXT	SEGMENT PARA USE32 PUBLIC 'CODE'
_TEXT	ENDS
;	COMDAT __imp_??2AWeapon@@SAPAXIPAW4EInternal@@@Z
_TEXT	SEGMENT PARA USE32 PUBLIC 'CODE'
_TEXT	ENDS
;	COMDAT __imp_??1AWeapon@@UAE@XZ
_TEXT	SEGMENT PARA USE32 PUBLIC 'CODE'
_TEXT	ENDS
;	COMDAT __imp_??0AWeapon@@IAE@XZ
_TEXT	SEGMENT PARA USE32 PUBLIC 'CODE'
_TEXT	ENDS
;	COMDAT ??_GAWeapon@@UAEPAXI@Z
_TEXT	SEGMENT PARA USE32 PUBLIC 'CODE'
_TEXT	ENDS
;	COMDAT __imp_??1FWAMEntry@@QAE@XZ
_TEXT	SEGMENT PARA USE32 PUBLIC 'CODE'
_TEXT	ENDS
;	COMDAT __imp_??0FWAMEntry@@QAE@XZ
_TEXT	SEGMENT PARA USE32 PUBLIC 'CODE'
_TEXT	ENDS
;	COMDAT __imp_?StaticClass@AProjectile@@SAPAVUClass@@XZ
_TEXT	SEGMENT PARA USE32 PUBLIC 'CODE'
_TEXT	ENDS
;	COMDAT __imp_??2AProjectile@@SAPAXIPAW4EInternal@@@Z
_TEXT	SEGMENT PARA USE32 PUBLIC 'CODE'
_TEXT	ENDS
;	COMDAT __imp_??1AProjectile@@UAE@XZ
_TEXT	SEGMENT PARA USE32 PUBLIC 'CODE'
_TEXT	ENDS
;	COMDAT __imp_??0AProjectile@@IAE@XZ
_TEXT	SEGMENT PARA USE32 PUBLIC 'CODE'
_TEXT	ENDS
;	COMDAT ??_GAProjectile@@UAEPAXI@Z
_TEXT	SEGMENT PARA USE32 PUBLIC 'CODE'
_TEXT	ENDS
;	COMDAT __imp_?StaticClass@AParticleSystem@@SAPAVUClass@@XZ
_TEXT	SEGMENT PARA USE32 PUBLIC 'CODE'
_TEXT	ENDS
;	COMDAT __imp_??2AParticleSystem@@SAPAXIPAW4EInternal@@@Z
_TEXT	SEGMENT PARA USE32 PUBLIC 'CODE'
_TEXT	ENDS
;	COMDAT __imp_??1AParticleSystem@@UAE@XZ
_TEXT	SEGMENT PARA USE32 PUBLIC 'CODE'
_TEXT	ENDS
;	COMDAT __imp_??0AParticleSystem@@IAE@XZ
_TEXT	SEGMENT PARA USE32 PUBLIC 'CODE'
_TEXT	ENDS
;	COMDAT ??_GAParticleSystem@@UAEPAXI@Z
_TEXT	SEGMENT PARA USE32 PUBLIC 'CODE'
_TEXT	ENDS
;	COMDAT __imp_?StaticClass@ASoftParticleAffector@@SAPAVUClass@@XZ
_TEXT	SEGMENT PARA USE32 PUBLIC 'CODE'
_TEXT	ENDS
;	COMDAT __imp_??2ASoftParticleAffector@@SAPAXIPAW4EInternal@@@Z
_TEXT	SEGMENT PARA USE32 PUBLIC 'CODE'
_TEXT	ENDS
;	COMDAT __imp_??1ASoftParticleAffector@@UAE@XZ
_TEXT	SEGMENT PARA USE32 PUBLIC 'CODE'
_TEXT	ENDS
;	COMDAT __imp_??0ASoftParticleAffector@@IAE@XZ
_TEXT	SEGMENT PARA USE32 PUBLIC 'CODE'
_TEXT	ENDS
;	COMDAT ??_GASoftParticleAffector@@UAEPAXI@Z
_TEXT	SEGMENT PARA USE32 PUBLIC 'CODE'
_TEXT	ENDS
;	COMDAT __imp_?StaticClass@ASoftParticleSystem@@SAPAVUClass@@XZ
_TEXT	SEGMENT PARA USE32 PUBLIC 'CODE'
_TEXT	ENDS
;	COMDAT __imp_??2ASoftParticleSystem@@SAPAXIPAW4EInternal@@@Z
_TEXT	SEGMENT PARA USE32 PUBLIC 'CODE'
_TEXT	ENDS
;	COMDAT __imp_??1ASoftParticleSystem@@UAE@XZ
_TEXT	SEGMENT PARA USE32 PUBLIC 'CODE'
_TEXT	ENDS
;	COMDAT __imp_??0ASoftParticleSystem@@QAE@XZ
_TEXT	SEGMENT PARA USE32 PUBLIC 'CODE'
_TEXT	ENDS
;	COMDAT ??_GASoftParticleSystem@@UAEPAXI@Z
_TEXT	SEGMENT PARA USE32 PUBLIC 'CODE'
_TEXT	ENDS
;	COMDAT __imp_??0FAdditionalSpawnStruct@@QAE@XZ
_TEXT	SEGMENT PARA USE32 PUBLIC 'CODE'
_TEXT	ENDS
;	COMDAT __imp_?StaticClass@ABeamSystem@@SAPAVUClass@@XZ
_TEXT	SEGMENT PARA USE32 PUBLIC 'CODE'
_TEXT	ENDS
;	COMDAT __imp_??2ABeamSystem@@SAPAXIPAW4EInternal@@@Z
_TEXT	SEGMENT PARA USE32 PUBLIC 'CODE'
_TEXT	ENDS
;	COMDAT __imp_??1ABeamSystem@@UAE@XZ
_TEXT	SEGMENT PARA USE32 PUBLIC 'CODE'
_TEXT	ENDS
;	COMDAT __imp_??0ABeamSystem@@QAE@XZ
_TEXT	SEGMENT PARA USE32 PUBLIC 'CODE'
_TEXT	ENDS
;	COMDAT ??_GABeamSystem@@UAEPAXI@Z
_TEXT	SEGMENT PARA USE32 PUBLIC 'CODE'
_TEXT	ENDS
;	COMDAT __imp_??0FSControlPoint@@QAE@XZ
_TEXT	SEGMENT PARA USE32 PUBLIC 'CODE'
_TEXT	ENDS
;	COMDAT __imp_?StaticClass@ABreakableGlass@@SAPAVUClass@@XZ
_TEXT	SEGMENT PARA USE32 PUBLIC 'CODE'
_TEXT	ENDS
;	COMDAT __imp_??2ABreakableGlass@@SAPAXIPAW4EInternal@@@Z
_TEXT	SEGMENT PARA USE32 PUBLIC 'CODE'
_TEXT	ENDS
;	COMDAT __imp_??1ABreakableGlass@@UAE@XZ
_TEXT	SEGMENT PARA USE32 PUBLIC 'CODE'
_TEXT	ENDS
;	COMDAT ??_GABreakableGlass@@UAEPAXI@Z
_TEXT	SEGMENT PARA USE32 PUBLIC 'CODE'
_TEXT	ENDS
;	COMDAT __imp_?StaticClass@ULevelSummary@@SAPAVUClass@@XZ
_TEXT	SEGMENT PARA USE32 PUBLIC 'CODE'
_TEXT	ENDS
;	COMDAT __imp_??2ULevelSummary@@SAPAXIPAW4EInternal@@@Z
_TEXT	SEGMENT PARA USE32 PUBLIC 'CODE'
_TEXT	ENDS
;	COMDAT __imp_??1ULevelSummary@@UAE@XZ
_TEXT	SEGMENT PARA USE32 PUBLIC 'CODE'
_TEXT	ENDS
;	COMDAT __imp_??0ULevelSummary@@QAE@XZ
_TEXT	SEGMENT PARA USE32 PUBLIC 'CODE'
_TEXT	ENDS
;	COMDAT __imp_?PostLoad@ULevelSummary@@UAEXXZ
_TEXT	SEGMENT PARA USE32 PUBLIC 'CODE'
_TEXT	ENDS
;	COMDAT ??_GULevelSummary@@UAEPAXI@Z
_TEXT	SEGMENT PARA USE32 PUBLIC 'CODE'
_TEXT	ENDS
;	COMDAT ??1FCollisionHashBase@@UAE@XZ
_TEXT	SEGMENT PARA USE32 PUBLIC 'CODE'
_TEXT	ENDS
;	COMDAT ??_GFCollisionHashBase@@UAEPAXI@Z
_TEXT	SEGMENT PARA USE32 PUBLIC 'CODE'
_TEXT	ENDS
;	COMDAT __imp_?StaticClass@ULevelBase@@SAPAVUClass@@XZ
_TEXT	SEGMENT PARA USE32 PUBLIC 'CODE'
_TEXT	ENDS
;	COMDAT __imp_??1ULevelBase@@UAE@XZ
_TEXT	SEGMENT PARA USE32 PUBLIC 'CODE'
_TEXT	ENDS
;	COMDAT __imp_??0ULevelBase@@IAE@XZ
_TEXT	SEGMENT PARA USE32 PUBLIC 'CODE'
_TEXT	ENDS
;	COMDAT __imp_??1FURL@@QAE@XZ
_TEXT	SEGMENT PARA USE32 PUBLIC 'CODE'
_TEXT	ENDS
;	COMDAT ??1?$TTransArray@PAVAActor@@@@QAE@XZ
_TEXT	SEGMENT PARA USE32 PUBLIC 'CODE'
_TEXT	ENDS
;	COMDAT __imp_??0FNetworkNotify@@QAE@XZ
_TEXT	SEGMENT PARA USE32 PUBLIC 'CODE'
_TEXT	ENDS
;	COMDAT __imp_?StaticClass@ULevel@@SAPAVUClass@@XZ
_TEXT	SEGMENT PARA USE32 PUBLIC 'CODE'
_TEXT	ENDS
;	COMDAT __imp_??2ULevel@@SAPAXIPAW4EInternal@@@Z
_TEXT	SEGMENT PARA USE32 PUBLIC 'CODE'
_TEXT	ENDS
;	COMDAT __imp_??1ULevel@@UAE@XZ
_TEXT	SEGMENT PARA USE32 PUBLIC 'CODE'
_TEXT	ENDS
;	COMDAT __imp_??0ULevel@@IAE@XZ
_TEXT	SEGMENT PARA USE32 PUBLIC 'CODE'
_TEXT	ENDS
;	COMDAT __imp_?GetLevelInfo@ULevel@@QAEPAVALevelInfo@@XZ
_TEXT	SEGMENT PARA USE32 PUBLIC 'CODE'
_TEXT	ENDS
;	COMDAT ??_GULevel@@UAEPAXI@Z
_TEXT	SEGMENT PARA USE32 PUBLIC 'CODE'
_TEXT	ENDS
;	COMDAT ??1?$TMap@VFString@@V1@@@QAE@XZ
_TEXT	SEGMENT PARA USE32 PUBLIC 'CODE'
_TEXT	ENDS
;	COMDAT ??1?$TMap@VFName@@PAVAActor@@@@QAE@XZ
_TEXT	SEGMENT PARA USE32 PUBLIC 'CODE'
_TEXT	ENDS
;	COMDAT ??0?$TMap@VFString@@V1@@@QAE@XZ
_TEXT	SEGMENT PARA USE32 PUBLIC 'CODE'
_TEXT	ENDS
;	COMDAT ??0?$TMap@VFName@@PAVAActor@@@@QAE@XZ
_TEXT	SEGMENT PARA USE32 PUBLIC 'CODE'
_TEXT	ENDS
;	COMDAT ??EFStaticBrushIterator@@QAEXXZ
_TEXT	SEGMENT PARA USE32 PUBLIC 'CODE'
_TEXT	ENDS
;	COMDAT __imp_?StaticClass@UInput@@SAPAVUClass@@XZ
_TEXT	SEGMENT PARA USE32 PUBLIC 'CODE'
_TEXT	ENDS
;	COMDAT __imp_??2UInput@@SAPAXIPAW4EInternal@@@Z
_TEXT	SEGMENT PARA USE32 PUBLIC 'CODE'
_TEXT	ENDS
;	COMDAT __imp_??1UInput@@UAE@XZ
_TEXT	SEGMENT PARA USE32 PUBLIC 'CODE'
_TEXT	ENDS
;	COMDAT ??_GUInput@@UAEPAXI@Z
_TEXT	SEGMENT PARA USE32 PUBLIC 'CODE'
_TEXT	ENDS
;	COMDAT ??1FAlias@@QAE@XZ
_TEXT	SEGMENT PARA USE32 PUBLIC 'CODE'
_TEXT	ENDS
;	COMDAT __imp_?StaticClass@UPlayer@@SAPAVUClass@@XZ
_TEXT	SEGMENT PARA USE32 PUBLIC 'CODE'
_TEXT	ENDS
;	COMDAT __imp_??1UPlayer@@UAE@XZ
_TEXT	SEGMENT PARA USE32 PUBLIC 'CODE'
_TEXT	ENDS
;	COMDAT __imp_?StaticClass@UEngine@@SAPAVUClass@@XZ
_TEXT	SEGMENT PARA USE32 PUBLIC 'CODE'
_TEXT	ENDS
;	COMDAT __imp_??1UEngine@@UAE@XZ
_TEXT	SEGMENT PARA USE32 PUBLIC 'CODE'
_TEXT	ENDS
;	COMDAT __imp_?vtPad1@UEngine@@UAEXXZ
_TEXT	SEGMENT PARA USE32 PUBLIC 'CODE'
_TEXT	ENDS
;	COMDAT __imp_?vtPad2@UEngine@@UAEXXZ
_TEXT	SEGMENT PARA USE32 PUBLIC 'CODE'
_TEXT	ENDS
;	COMDAT __imp_?vtPad3@UEngine@@UAEXXZ
_TEXT	SEGMENT PARA USE32 PUBLIC 'CODE'
_TEXT	ENDS
;	COMDAT __imp_?edSetClickLocation@UEngine@@UAEXAAVFVector@@@Z
_TEXT	SEGMENT PARA USE32 PUBLIC 'CODE'
_TEXT	ENDS
;	COMDAT __imp_?edcamMode@UEngine@@UAEHPAVUViewport@@@Z
_TEXT	SEGMENT PARA USE32 PUBLIC 'CODE'
_TEXT	ENDS
;	COMDAT __imp_?vtPad4@UEngine@@UAEXXZ
_TEXT	SEGMENT PARA USE32 PUBLIC 'CODE'
_TEXT	ENDS
;	COMDAT __imp_?vtPad5@UEngine@@UAEXXZ
_TEXT	SEGMENT PARA USE32 PUBLIC 'CODE'
_TEXT	ENDS
;	COMDAT __imp_?vtPad6@UEngine@@UAEXXZ
_TEXT	SEGMENT PARA USE32 PUBLIC 'CODE'
_TEXT	ENDS
;	COMDAT __imp_?StaticClass@UGameEngine@@SAPAVUClass@@XZ
_TEXT	SEGMENT PARA USE32 PUBLIC 'CODE'
_TEXT	ENDS
;	COMDAT __imp_??2UGameEngine@@SAPAXIPAW4EInternal@@@Z
_TEXT	SEGMENT PARA USE32 PUBLIC 'CODE'
_TEXT	ENDS
;	COMDAT __imp_??1UGameEngine@@UAE@XZ
_TEXT	SEGMENT PARA USE32 PUBLIC 'CODE'
_TEXT	ENDS
;	COMDAT ??_GUGameEngine@@UAEPAXI@Z
_TEXT	SEGMENT PARA USE32 PUBLIC 'CODE'
_TEXT	ENDS
;	COMDAT __imp_?StaticClass@UCanvas@@SAPAVUClass@@XZ
_TEXT	SEGMENT PARA USE32 PUBLIC 'CODE'
_TEXT	ENDS
;	COMDAT __imp_??2UCanvas@@SAPAXIPAW4EInternal@@@Z
_TEXT	SEGMENT PARA USE32 PUBLIC 'CODE'
_TEXT	ENDS
;	COMDAT __imp_??1UCanvas@@UAE@XZ
_TEXT	SEGMENT PARA USE32 PUBLIC 'CODE'
_TEXT	ENDS
;	COMDAT __imp_??0UCanvas@@IAE@XZ
_TEXT	SEGMENT PARA USE32 PUBLIC 'CODE'
_TEXT	ENDS
;	COMDAT ??_GUCanvas@@UAEPAXI@Z
_TEXT	SEGMENT PARA USE32 PUBLIC 'CODE'
_TEXT	ENDS
;	COMDAT ??1?$TMap@VFString@@PAVUFont@@@@QAE@XZ
_TEXT	SEGMENT PARA USE32 PUBLIC 'CODE'
_TEXT	ENDS
;	COMDAT ??0?$TMap@VFString@@PAVUFont@@@@QAE@XZ
_TEXT	SEGMENT PARA USE32 PUBLIC 'CODE'
_TEXT	ENDS
;	COMDAT __imp_?StaticClass@UViewport@@SAPAVUClass@@XZ
_TEXT	SEGMENT PARA USE32 PUBLIC 'CODE'
_TEXT	ENDS
;	COMDAT __imp_??1UViewport@@UAE@XZ
_TEXT	SEGMENT PARA USE32 PUBLIC 'CODE'
_TEXT	ENDS
;	COMDAT __imp_?GetOuterUClient@UViewport@@QBEPAVUClient@@XZ
_TEXT	SEGMENT PARA USE32 PUBLIC 'CODE'
_TEXT	ENDS
;	COMDAT __imp_?IsOrtho@UViewport@@QAEHXZ
_TEXT	SEGMENT PARA USE32 PUBLIC 'CODE'
_TEXT	ENDS
;	COMDAT __imp_?IsA@HHitProxy@@UBEHPBG@Z
_TEXT	SEGMENT PARA USE32 PUBLIC 'CODE'
_TEXT	ENDS
;	COMDAT __imp_?Click@HHitProxy@@UAEXABUFHitCause@@@Z
_TEXT	SEGMENT PARA USE32 PUBLIC 'CODE'
_TEXT	ENDS
;	COMDAT __imp_?StaticClass@UClient@@SAPAVUClass@@XZ
_TEXT	SEGMENT PARA USE32 PUBLIC 'CODE'
_TEXT	ENDS
;	COMDAT __imp_??1UClient@@UAE@XZ
_TEXT	SEGMENT PARA USE32 PUBLIC 'CODE'
_TEXT	ENDS
;	COMDAT ??6@YAAAVFArchive@@AAV0@AAVFMeshAnimNotify@@@Z
_TEXT	SEGMENT PARA USE32 PUBLIC 'CODE'
_TEXT	ENDS
;	COMDAT ??0FMeshAnimNotify@@QAE@XZ
_TEXT	SEGMENT PARA USE32 PUBLIC 'CODE'
_TEXT	ENDS
;	COMDAT ??6@YAAAVFArchive@@AAV0@AAUFMeshVertConnect@@@Z
_TEXT	SEGMENT PARA USE32 PUBLIC 'CODE'
_TEXT	ENDS
;	COMDAT ??0FMeshVert@@QAE@XZ
_TEXT	SEGMENT PARA USE32 PUBLIC 'CODE'
_TEXT	ENDS
;	COMDAT ??6@YAAAVFArchive@@AAV0@AAUFMeshVert@@@Z
_TEXT	SEGMENT PARA USE32 PUBLIC 'CODE'
_TEXT	ENDS
;	COMDAT ??6@YAAAVFArchive@@AAV0@AAUFMeshUV@@@Z
_TEXT	SEGMENT PARA USE32 PUBLIC 'CODE'
_TEXT	ENDS
;	COMDAT ??6@YAAAVFArchive@@AAV0@AAUFMeshTri@@@Z
_TEXT	SEGMENT PARA USE32 PUBLIC 'CODE'
_TEXT	ENDS
;	COMDAT __imp_?StaticClass@UUnrealMesh@@SAPAVUClass@@XZ
_TEXT	SEGMENT PARA USE32 PUBLIC 'CODE'
_TEXT	ENDS
;	COMDAT __imp_??2UUnrealMesh@@SAPAXIPAW4EInternal@@@Z
_TEXT	SEGMENT PARA USE32 PUBLIC 'CODE'
_TEXT	ENDS
;	COMDAT __imp_??1UUnrealMesh@@UAE@XZ
_TEXT	SEGMENT PARA USE32 PUBLIC 'CODE'
_TEXT	ENDS
;	COMDAT ??_GUUnrealMesh@@UAEPAXI@Z
_TEXT	SEGMENT PARA USE32 PUBLIC 'CODE'
_TEXT	ENDS
;	COMDAT __imp_?StaticClass@UUnrealLodMesh@@SAPAVUClass@@XZ
_TEXT	SEGMENT PARA USE32 PUBLIC 'CODE'
_TEXT	ENDS
;	COMDAT __imp_??2UUnrealLodMesh@@SAPAXIPAW4EInternal@@@Z
_TEXT	SEGMENT PARA USE32 PUBLIC 'CODE'
_TEXT	ENDS
;	COMDAT __imp_??1UUnrealLodMesh@@UAE@XZ
_TEXT	SEGMENT PARA USE32 PUBLIC 'CODE'
_TEXT	ENDS
;	COMDAT __imp_??0UUnrealLodMesh@@QAE@XZ
_TEXT	SEGMENT PARA USE32 PUBLIC 'CODE'
_TEXT	ENDS
;	COMDAT ??_GUUnrealLodMesh@@UAEPAXI@Z
_TEXT	SEGMENT PARA USE32 PUBLIC 'CODE'
_TEXT	ENDS
;	COMDAT __imp_?StaticClass@UDukeMesh@@SAPAVUClass@@XZ
_TEXT	SEGMENT PARA USE32 PUBLIC 'CODE'
_TEXT	ENDS
;	COMDAT __imp_??2UDukeMesh@@SAPAXIPAW4EInternal@@@Z
_TEXT	SEGMENT PARA USE32 PUBLIC 'CODE'
_TEXT	ENDS
;	COMDAT __imp_??1UDukeMesh@@UAE@XZ
_TEXT	SEGMENT PARA USE32 PUBLIC 'CODE'
_TEXT	ENDS
;	COMDAT ??_GUDukeMesh@@UAEPAXI@Z
_TEXT	SEGMENT PARA USE32 PUBLIC 'CODE'
_TEXT	ENDS
;	COMDAT ??1?$TMap@VFName@@V1@@@QAE@XZ
_TEXT	SEGMENT PARA USE32 PUBLIC 'CODE'
_TEXT	ENDS
;	COMDAT __imp_?IsBrush@AActor@@QBEHXZ
_TEXT	SEGMENT PARA USE32 PUBLIC 'CODE'
_TEXT	ENDS
;	COMDAT __imp_?IsStaticBrush@AActor@@QBEHXZ
_TEXT	SEGMENT PARA USE32 PUBLIC 'CODE'
_TEXT	ENDS
;	COMDAT __imp_?GetPlayerPawn@AActor@@QBEPAVAPlayerPawn@@XZ
_TEXT	SEGMENT PARA USE32 PUBLIC 'CODE'
_TEXT	ENDS
;	COMDAT __imp_?GetPrimitive@AActor@@UBEPAVUPrimitive@@XZ
_TEXT	SEGMENT PARA USE32 PUBLIC 'CODE'
_TEXT	ENDS
;	COMDAT __imp_?StaticClass@UAudioSubsystem@@SAPAVUClass@@XZ
_TEXT	SEGMENT PARA USE32 PUBLIC 'CODE'
_TEXT	ENDS
;	COMDAT __imp_??1UAudioSubsystem@@UAE@XZ
_TEXT	SEGMENT PARA USE32 PUBLIC 'CODE'
_TEXT	ENDS
;	COMDAT __imp_??0FSoundData@@QAE@PAVUSound@@@Z
_TEXT	SEGMENT PARA USE32 PUBLIC 'CODE'
_TEXT	ENDS
;	COMDAT __imp_?StaticClass@USound@@SAPAVUClass@@XZ
_TEXT	SEGMENT PARA USE32 PUBLIC 'CODE'
_TEXT	ENDS
;	COMDAT __imp_??2USound@@SAPAXIPAW4EInternal@@@Z
_TEXT	SEGMENT PARA USE32 PUBLIC 'CODE'
_TEXT	ENDS
;	COMDAT __imp_??1USound@@UAE@XZ
_TEXT	SEGMENT PARA USE32 PUBLIC 'CODE'
_TEXT	ENDS
;	COMDAT __imp_??0USound@@QAE@XZ
_TEXT	SEGMENT PARA USE32 PUBLIC 'CODE'
_TEXT	ENDS
;	COMDAT ??_GUSound@@UAEPAXI@Z
_TEXT	SEGMENT PARA USE32 PUBLIC 'CODE'
_TEXT	ENDS
;	COMDAT __imp_??1FSoundData@@QAE@XZ
_TEXT	SEGMENT PARA USE32 PUBLIC 'CODE'
_TEXT	ENDS
;	COMDAT __imp_?StaticClass@UVoiceSound@@SAPAVUClass@@XZ
_TEXT	SEGMENT PARA USE32 PUBLIC 'CODE'
_TEXT	ENDS
;	COMDAT __imp_??2UVoiceSound@@SAPAXIPAW4EInternal@@@Z
_TEXT	SEGMENT PARA USE32 PUBLIC 'CODE'
_TEXT	ENDS
;	COMDAT __imp_??1UVoiceSound@@UAE@XZ
_TEXT	SEGMENT PARA USE32 PUBLIC 'CODE'
_TEXT	ENDS
;	COMDAT ??_GUVoiceSound@@UAEPAXI@Z
_TEXT	SEGMENT PARA USE32 PUBLIC 'CODE'
_TEXT	ENDS
;	COMDAT __imp_??0UVoiceSound@@QAE@XZ
_TEXT	SEGMENT PARA USE32 PUBLIC 'CODE'
_TEXT	ENDS
;	COMDAT __imp_?StaticClass@UMusic@@SAPAVUClass@@XZ
_TEXT	SEGMENT PARA USE32 PUBLIC 'CODE'
_TEXT	ENDS
;	COMDAT __imp_??2UMusic@@SAPAXIPAW4EInternal@@@Z
_TEXT	SEGMENT PARA USE32 PUBLIC 'CODE'
_TEXT	ENDS
;	COMDAT __imp_??1UMusic@@UAE@XZ
_TEXT	SEGMENT PARA USE32 PUBLIC 'CODE'
_TEXT	ENDS
;	COMDAT __imp_??0UMusic@@QAE@XZ
_TEXT	SEGMENT PARA USE32 PUBLIC 'CODE'
_TEXT	ENDS
;	COMDAT ??_GUMusic@@UAEPAXI@Z
_TEXT	SEGMENT PARA USE32 PUBLIC 'CODE'
_TEXT	ENDS
;	COMDAT ??1FMovingBrushTrackerBase@@UAE@XZ
_TEXT	SEGMENT PARA USE32 PUBLIC 'CODE'
_TEXT	ENDS
;	COMDAT ??_GFMovingBrushTrackerBase@@UAEPAXI@Z
_TEXT	SEGMENT PARA USE32 PUBLIC 'CODE'
_TEXT	ENDS
;	COMDAT __imp_?StaticClass@UScriptedTexture@@SAPAVUClass@@XZ
_TEXT	SEGMENT PARA USE32 PUBLIC 'CODE'
_TEXT	ENDS
;	COMDAT __imp_??2UScriptedTexture@@SAPAXIPAW4EInternal@@@Z
_TEXT	SEGMENT PARA USE32 PUBLIC 'CODE'
_TEXT	ENDS
;	COMDAT __imp_??1UScriptedTexture@@UAE@XZ
_TEXT	SEGMENT PARA USE32 PUBLIC 'CODE'
_TEXT	ENDS
;	COMDAT __imp_?PostEditChange@UScriptedTexture@@UAEXXZ
_TEXT	SEGMENT PARA USE32 PUBLIC 'CODE'
_TEXT	ENDS
;	COMDAT ??_GUScriptedTexture@@UAEPAXI@Z
_TEXT	SEGMENT PARA USE32 PUBLIC 'CODE'
_TEXT	ENDS
;	COMDAT __imp_?StaticClass@URenderIterator@@SAPAVUClass@@XZ
_TEXT	SEGMENT PARA USE32 PUBLIC 'CODE'
_TEXT	ENDS
;	COMDAT __imp_??2URenderIterator@@SAPAXIPAW4EInternal@@@Z
_TEXT	SEGMENT PARA USE32 PUBLIC 'CODE'
_TEXT	ENDS
;	COMDAT __imp_??1URenderIterator@@UAE@XZ
_TEXT	SEGMENT PARA USE32 PUBLIC 'CODE'
_TEXT	ENDS
;	COMDAT ??_GURenderIterator@@UAEPAXI@Z
_TEXT	SEGMENT PARA USE32 PUBLIC 'CODE'
_TEXT	ENDS
;	COMDAT __imp_??1FActorNode@@QAE@XZ
_TEXT	SEGMENT PARA USE32 PUBLIC 'CODE'
_TEXT	ENDS
;	COMDAT ??_GFActorNode@@QAEPAXI@Z
_TEXT	SEGMENT PARA USE32 PUBLIC 'CODE'
_TEXT	ENDS
;	COMDAT ?IsA@HActorVertex@@UBEHPBG@Z
_TEXT	SEGMENT PARA USE32 PUBLIC 'CODE'
_TEXT	ENDS
;	COMDAT __imp_??0HHitProxy@@QAE@XZ
_TEXT	SEGMENT PARA USE32 PUBLIC 'CODE'
_TEXT	ENDS
;	COMDAT __imp_?StaticClass@URenderDevice@@SAPAVUClass@@XZ
_TEXT	SEGMENT PARA USE32 PUBLIC 'CODE'
_TEXT	ENDS
;	COMDAT __imp_??1URenderDevice@@UAE@XZ
_TEXT	SEGMENT PARA USE32 PUBLIC 'CODE'
_TEXT	ENDS
;	COMDAT __imp_?DrawStats@URenderDevice@@UAIXPAUFSceneNode@@@Z
_TEXT	SEGMENT PARA USE32 PUBLIC 'CODE'
_TEXT	ENDS
;	COMDAT __imp_?SetSceneNode@URenderDevice@@UAIXPAUFSceneNode@@@Z
_TEXT	SEGMENT PARA USE32 PUBLIC 'CODE'
_TEXT	ENDS
;	COMDAT __imp_?_Validate@URenderDevice@@UAIXPADH@Z
_TEXT	SEGMENT PARA USE32 PUBLIC 'CODE'
_TEXT	ENDS
;	COMDAT ?Project@FTransform@@QAEXPBUFSceneNode@@@Z
_TEXT	SEGMENT PARA USE32 PUBLIC 'CODE'
_TEXT	ENDS
;	COMDAT ??0FTransform@@QAE@XZ
_TEXT	SEGMENT PARA USE32 PUBLIC 'CODE'
_TEXT	ENDS
;	COMDAT ??0FOutVector@@QAE@XZ
_TEXT	SEGMENT PARA USE32 PUBLIC 'CODE'
_TEXT	ENDS
;	COMDAT ??0FTransSample@@QAE@XZ
_TEXT	SEGMENT PARA USE32 PUBLIC 'CODE'
_TEXT	ENDS
;	COMDAT ??0FTransSample@@QAE@ABU0@@Z
_TEXT	SEGMENT PARA USE32 PUBLIC 'CODE'
_TEXT	ENDS
;	COMDAT ??0FTransTexture@@QAE@XZ
_TEXT	SEGMENT PARA USE32 PUBLIC 'CODE'
_TEXT	ENDS
;	COMDAT ??0FTransTexture@@QAE@ABU0@@Z
_TEXT	SEGMENT PARA USE32 PUBLIC 'CODE'
_TEXT	ENDS
;	COMDAT ??0FSpan@@QAE@HH@Z
_TEXT	SEGMENT PARA USE32 PUBLIC 'CODE'
_TEXT	ENDS
;	COMDAT ??0FDynamicItem@@QAE@XZ
_TEXT	SEGMENT PARA USE32 PUBLIC 'CODE'
_TEXT	ENDS
;	COMDAT ?Filter@FDynamicItem@@UAIXPAVUViewport@@PAUFSceneNode@@HH@Z
_TEXT	SEGMENT PARA USE32 PUBLIC 'CODE'
_TEXT	ENDS
;	COMDAT ?PreRender@FDynamicItem@@UAIXPAVUViewport@@PAUFSceneNode@@PAVFSpanBuffer@@HPAUFVolActorLink@@@Z
_TEXT	SEGMENT PARA USE32 PUBLIC 'CODE'
_TEXT	ENDS
;	COMDAT ?Reset@Profile@@QAEXXZ
_TEXT	SEGMENT PARA USE32 PUBLIC 'CODE'
_TEXT	ENDS
;	COMDAT ?Collapse@Profile@@QAEXXZ
_TEXT	SEGMENT PARA USE32 PUBLIC 'CODE'
_TEXT	ENDS
;	COMDAT __imp_?StaticClass@URender@@SAPAVUClass@@XZ
_TEXT	SEGMENT PARA USE32 PUBLIC 'CODE'
_TEXT	ENDS
;	COMDAT __imp_??2URender@@SAPAXIPAW4EInternal@@@Z
_TEXT	SEGMENT PARA USE32 PUBLIC 'CODE'
_TEXT	ENDS
;	COMDAT __imp_??1URender@@UAE@XZ
_TEXT	SEGMENT PARA USE32 PUBLIC 'CODE'
_TEXT	ENDS
;	COMDAT ??_GURender@@UAEPAXI@Z
_TEXT	SEGMENT PARA USE32 PUBLIC 'CODE'
_TEXT	ENDS
;	COMDAT _$E229
_TEXT	SEGMENT PARA USE32 PUBLIC 'CODE'
_TEXT	ENDS
;	COMDAT _$E230
_TEXT	SEGMENT PARA USE32 PUBLIC 'CODE'
_TEXT	ENDS
;	COMDAT _$E231
_TEXT	SEGMENT PARA USE32 PUBLIC 'CODE'
_TEXT	ENDS
;	COMDAT _$E232
_TEXT	SEGMENT PARA USE32 PUBLIC 'CODE'
_TEXT	ENDS
;	COMDAT _$E234
_TEXT	SEGMENT PARA USE32 PUBLIC 'CODE'
_TEXT	ENDS
;	COMDAT _$E235
_TEXT	SEGMENT PARA USE32 PUBLIC 'CODE'
_TEXT	ENDS
;	COMDAT _$E236
_TEXT	SEGMENT PARA USE32 PUBLIC 'CODE'
_TEXT	ENDS
;	COMDAT _$E237
_TEXT	SEGMENT PARA USE32 PUBLIC 'CODE'
_TEXT	ENDS
;	COMDAT _$E239
_TEXT	SEGMENT PARA USE32 PUBLIC 'CODE'
_TEXT	ENDS
;	COMDAT _$E240
_TEXT	SEGMENT PARA USE32 PUBLIC 'CODE'
_TEXT	ENDS
;	COMDAT _$E241
_TEXT	SEGMENT PARA USE32 PUBLIC 'CODE'
_TEXT	ENDS
;	COMDAT _$E242
_TEXT	SEGMENT PARA USE32 PUBLIC 'CODE'
_TEXT	ENDS
;	COMDAT _$E244
_TEXT	SEGMENT PARA USE32 PUBLIC 'CODE'
_TEXT	ENDS
;	COMDAT _$E245
_TEXT	SEGMENT PARA USE32 PUBLIC 'CODE'
_TEXT	ENDS
;	COMDAT _$E246
_TEXT	SEGMENT PARA USE32 PUBLIC 'CODE'
_TEXT	ENDS
;	COMDAT _$E247
_TEXT	SEGMENT PARA USE32 PUBLIC 'CODE'
_TEXT	ENDS
;	COMDAT _$E249
_TEXT	SEGMENT PARA USE32 PUBLIC 'CODE'
_TEXT	ENDS
;	COMDAT _$E250
_TEXT	SEGMENT PARA USE32 PUBLIC 'CODE'
_TEXT	ENDS
;	COMDAT _$E251
_TEXT	SEGMENT PARA USE32 PUBLIC 'CODE'
_TEXT	ENDS
;	COMDAT _$E252
_TEXT	SEGMENT PARA USE32 PUBLIC 'CODE'
_TEXT	ENDS
;	COMDAT _$E254
_TEXT	SEGMENT PARA USE32 PUBLIC 'CODE'
_TEXT	ENDS
;	COMDAT _$E255
_TEXT	SEGMENT PARA USE32 PUBLIC 'CODE'
_TEXT	ENDS
;	COMDAT _$E256
_TEXT	SEGMENT PARA USE32 PUBLIC 'CODE'
_TEXT	ENDS
;	COMDAT _$E257
_TEXT	SEGMENT PARA USE32 PUBLIC 'CODE'
_TEXT	ENDS
;	COMDAT _$E259
_TEXT	SEGMENT PARA USE32 PUBLIC 'CODE'
_TEXT	ENDS
;	COMDAT _$E260
_TEXT	SEGMENT PARA USE32 PUBLIC 'CODE'
_TEXT	ENDS
;	COMDAT _$E261
_TEXT	SEGMENT PARA USE32 PUBLIC 'CODE'
_TEXT	ENDS
;	COMDAT _$E262
_TEXT	SEGMENT PARA USE32 PUBLIC 'CODE'
_TEXT	ENDS
;	COMDAT _$E264
_TEXT	SEGMENT PARA USE32 PUBLIC 'CODE'
_TEXT	ENDS
;	COMDAT _$E265
_TEXT	SEGMENT PARA USE32 PUBLIC 'CODE'
_TEXT	ENDS
;	COMDAT _$E266
_TEXT	SEGMENT PARA USE32 PUBLIC 'CODE'
_TEXT	ENDS
;	COMDAT _$E267
_TEXT	SEGMENT PARA USE32 PUBLIC 'CODE'
_TEXT	ENDS
;	COMDAT _$E269
_TEXT	SEGMENT PARA USE32 PUBLIC 'CODE'
_TEXT	ENDS
;	COMDAT _$E270
_TEXT	SEGMENT PARA USE32 PUBLIC 'CODE'
_TEXT	ENDS
;	COMDAT _$E271
_TEXT	SEGMENT PARA USE32 PUBLIC 'CODE'
_TEXT	ENDS
;	COMDAT _$E272
_TEXT	SEGMENT PARA USE32 PUBLIC 'CODE'
_TEXT	ENDS
;	COMDAT _$E274
_TEXT	SEGMENT PARA USE32 PUBLIC 'CODE'
_TEXT	ENDS
;	COMDAT _$E275
_TEXT	SEGMENT PARA USE32 PUBLIC 'CODE'
_TEXT	ENDS
;	COMDAT _$E276
_TEXT	SEGMENT PARA USE32 PUBLIC 'CODE'
_TEXT	ENDS
;	COMDAT _$E277
_TEXT	SEGMENT PARA USE32 PUBLIC 'CODE'
_TEXT	ENDS
;	COMDAT _$E279
_TEXT	SEGMENT PARA USE32 PUBLIC 'CODE'
_TEXT	ENDS
;	COMDAT _$E280
_TEXT	SEGMENT PARA USE32 PUBLIC 'CODE'
_TEXT	ENDS
;	COMDAT _$E281
_TEXT	SEGMENT PARA USE32 PUBLIC 'CODE'
_TEXT	ENDS
;	COMDAT _$E282
_TEXT	SEGMENT PARA USE32 PUBLIC 'CODE'
_TEXT	ENDS
;	COMDAT _$E284
_TEXT	SEGMENT PARA USE32 PUBLIC 'CODE'
_TEXT	ENDS
;	COMDAT _$E285
_TEXT	SEGMENT PARA USE32 PUBLIC 'CODE'
_TEXT	ENDS
;	COMDAT _$E286
_TEXT	SEGMENT PARA USE32 PUBLIC 'CODE'
_TEXT	ENDS
;	COMDAT _$E287
_TEXT	SEGMENT PARA USE32 PUBLIC 'CODE'
_TEXT	ENDS
;	COMDAT ?GetNearZ_ExecFuncCall@@YIXPAVFExecVariable@@HPAPAG@Z
_TEXT	SEGMENT PARA USE32 PUBLIC 'CODE'
_TEXT	ENDS
;	COMDAT _$E289
_TEXT	SEGMENT PARA USE32 PUBLIC 'CODE'
_TEXT	ENDS
;	COMDAT _$E290
_TEXT	SEGMENT PARA USE32 PUBLIC 'CODE'
_TEXT	ENDS
;	COMDAT ?GetFormatBPP@@YAHW4_D3DFORMAT@@@Z
_TEXT	SEGMENT PARA USE32 PUBLIC 'CODE'
_TEXT	ENDS
;	COMDAT _$E292
_TEXT	SEGMENT PARA USE32 PUBLIC 'CODE'
_TEXT	ENDS
;	COMDAT _$E293
_TEXT	SEGMENT PARA USE32 PUBLIC 'CODE'
_TEXT	ENDS
;	COMDAT _$E294
_TEXT	SEGMENT PARA USE32 PUBLIC 'CODE'
_TEXT	ENDS
;	COMDAT _$E295
_TEXT	SEGMENT PARA USE32 PUBLIC 'CODE'
_TEXT	ENDS
;	COMDAT _$E297
_TEXT	SEGMENT PARA USE32 PUBLIC 'CODE'
_TEXT	ENDS
;	COMDAT _$E298
_TEXT	SEGMENT PARA USE32 PUBLIC 'CODE'
_TEXT	ENDS
;	COMDAT _$E299
_TEXT	SEGMENT PARA USE32 PUBLIC 'CODE'
_TEXT	ENDS
;	COMDAT _$E300
_TEXT	SEGMENT PARA USE32 PUBLIC 'CODE'
_TEXT	ENDS
;	COMDAT ??0FPixFormat@@QAE@XZ
_TEXT	SEGMENT PARA USE32 PUBLIC 'CODE'
_TEXT	ENDS
;	COMDAT ?ResetStats@FPixFormat@@QAEXXZ
_TEXT	SEGMENT PARA USE32 PUBLIC 'CODE'
_TEXT	ENDS
;	COMDAT ?StaticClass@UD3DRenderDevice@@SAPAVUClass@@XZ
_TEXT	SEGMENT PARA USE32 PUBLIC 'CODE'
_TEXT	ENDS
;	COMDAT ??2UD3DRenderDevice@@SAPAXIPAVUObject@@VFName@@K@Z
_TEXT	SEGMENT PARA USE32 PUBLIC 'CODE'
_TEXT	ENDS
;	COMDAT ??2UD3DRenderDevice@@SAPAXIPAW4EInternal@@@Z
_TEXT	SEGMENT PARA USE32 PUBLIC 'CODE'
_TEXT	ENDS
;	COMDAT ??1UD3DRenderDevice@@UAE@XZ
_TEXT	SEGMENT PARA USE32 PUBLIC 'CODE'
_TEXT	ENDS
;	COMDAT ?InternalConstructor@UD3DRenderDevice@@SAXPAX@Z
_TEXT	SEGMENT PARA USE32 PUBLIC 'CODE'
_TEXT	ENDS
;	COMDAT ?BeginUpload@FTexFiller@UD3DRenderDevice@@UAEXPAUFTexInfo@2@ABUFTextureInfo@@KK@Z
_TEXT	SEGMENT PARA USE32 PUBLIC 'CODE'
_TEXT	ENDS
;	COMDAT ?UploadMipmap@FTexFiller@UD3DRenderDevice@@UAEXPAUFTexInfo@2@TFRainbowPtr@@HABUFTextureInfo@@HK@Z
_TEXT	SEGMENT PARA USE32 PUBLIC 'CODE'
_TEXT	ENDS
;	COMDAT ??0FTexFillerDXT1@UD3DRenderDevice@@QAE@PAV1@@Z
_TEXT	SEGMENT PARA USE32 PUBLIC 'CODE'
_TEXT	ENDS
;	COMDAT ?UploadMipmap@FTexFillerDXT1@UD3DRenderDevice@@UAEXPAUFTexInfo@2@TFRainbowPtr@@HABUFTextureInfo@@HK@Z
_TEXT	SEGMENT PARA USE32 PUBLIC 'CODE'
_TEXT	ENDS
;	COMDAT ??0FTexFillerP8_P8@UD3DRenderDevice@@QAE@PAV1@@Z
_TEXT	SEGMENT PARA USE32 PUBLIC 'CODE'
_TEXT	ENDS
;	COMDAT ??0FTexFiller8888_RGBA8@UD3DRenderDevice@@QAE@PAV1@@Z
_TEXT	SEGMENT PARA USE32 PUBLIC 'CODE'
_TEXT	ENDS
;	COMDAT ?UploadMipmap@FTexFiller8888_RGBA8@UD3DRenderDevice@@UAEXPAUFTexInfo@2@TFRainbowPtr@@HABUFTextureInfo@@HK@Z
_TEXT	SEGMENT PARA USE32 PUBLIC 'CODE'
_TEXT	ENDS
;	COMDAT ??0FTexFiller8888_RGBA7@UD3DRenderDevice@@QAE@PAV1@@Z
_TEXT	SEGMENT PARA USE32 PUBLIC 'CODE'
_TEXT	ENDS
;	COMDAT ?UploadMipmap@FTexFiller8888_RGBA7@UD3DRenderDevice@@UAEXPAUFTexInfo@2@TFRainbowPtr@@HABUFTextureInfo@@HK@Z
_TEXT	SEGMENT PARA USE32 PUBLIC 'CODE'
_TEXT	ENDS
;	COMDAT ??0FTexFiller8888_P8@UD3DRenderDevice@@QAE@PAV1@@Z
_TEXT	SEGMENT PARA USE32 PUBLIC 'CODE'
_TEXT	ENDS
;	COMDAT ?UploadMipmap@FTexFiller8888_P8@UD3DRenderDevice@@UAEXPAUFTexInfo@2@TFRainbowPtr@@HABUFTextureInfo@@HK@Z
_TEXT	SEGMENT PARA USE32 PUBLIC 'CODE'
_TEXT	ENDS
;	COMDAT ?BeginUpload@FTexFiller8888_P8@UD3DRenderDevice@@UAEXPAUFTexInfo@2@ABUFTextureInfo@@KK@Z
_TEXT	SEGMENT PARA USE32 PUBLIC 'CODE'
_TEXT	ENDS
;	COMDAT ??0FTexFiller1555_RGBA7@UD3DRenderDevice@@QAE@PAV1@@Z
_TEXT	SEGMENT PARA USE32 PUBLIC 'CODE'
_TEXT	ENDS
;	COMDAT ?UploadMipmap@FTexFiller1555_RGBA7@UD3DRenderDevice@@UAEXPAUFTexInfo@2@TFRainbowPtr@@HABUFTextureInfo@@HK@Z
_TEXT	SEGMENT PARA USE32 PUBLIC 'CODE'
_TEXT	ENDS
;	COMDAT ??0FTexFiller1555_P8@UD3DRenderDevice@@QAE@PAV1@@Z
_TEXT	SEGMENT PARA USE32 PUBLIC 'CODE'
_TEXT	ENDS
;	COMDAT ?UploadMipmap@FTexFiller1555_P8@UD3DRenderDevice@@UAEXPAUFTexInfo@2@TFRainbowPtr@@HABUFTextureInfo@@HK@Z
_TEXT	SEGMENT PARA USE32 PUBLIC 'CODE'
_TEXT	ENDS
;	COMDAT ?BuildAlphaPalette@FTexFiller1555_P8@UD3DRenderDevice@@QAEXPAVFColor@@KKKKKKKK@Z
_TEXT	SEGMENT PARA USE32 PUBLIC 'CODE'
_TEXT	ENDS
;	COMDAT ?BeginUpload@FTexFiller1555_P8@UD3DRenderDevice@@UAEXPAUFTexInfo@2@ABUFTextureInfo@@KK@Z
_TEXT	SEGMENT PARA USE32 PUBLIC 'CODE'
_TEXT	ENDS
;	COMDAT ?CleanupVertexBuffers@UD3DRenderDevice@@QAEXXZ
_TEXT	SEGMENT PARA USE32 PUBLIC 'CODE'
_TEXT	ENDS
;	COMDAT ?StaticConstructor@UD3DRenderDevice@@QAEXXZ
_TEXT	SEGMENT PARA USE32 PUBLIC 'CODE'
_TEXT	ENDS
;	COMDAT ??0UD3DRenderDevice@@QAE@XZ
_TEXT	SEGMENT PARA USE32 PUBLIC 'CODE'
_TEXT	ENDS
;	COMDAT ?Destroy@UD3DRenderDevice@@UAEXXZ
_TEXT	SEGMENT PARA USE32 PUBLIC 'CODE'
_TEXT	ENDS
;	COMDAT ?InitD3D@UD3DRenderDevice@@SIXXZ
_TEXT	SEGMENT PARA USE32 PUBLIC 'CODE'
_TEXT	ENDS
;	COMDAT ?Init@UD3DRenderDevice@@UAIHPAVUViewport@@HHHH@Z
_TEXT	SEGMENT PARA USE32 PUBLIC 'CODE'
_TEXT	ENDS
;	COMDAT ?Exit@UD3DRenderDevice@@UAIXXZ
_TEXT	SEGMENT PARA USE32 PUBLIC 'CODE'
_TEXT	ENDS
;	COMDAT ?ShutdownAfterError@UD3DRenderDevice@@UAEXXZ
_TEXT	SEGMENT PARA USE32 PUBLIC 'CODE'
_TEXT	ENDS
;	COMDAT ?UpdateGamma@UD3DRenderDevice@@QAEXPAVUViewport@@@Z
_TEXT	SEGMENT PARA USE32 PUBLIC 'CODE'
_TEXT	ENDS
;	COMDAT ?RestoreGamma@UD3DRenderDevice@@QAEXXZ
_TEXT	SEGMENT PARA USE32 PUBLIC 'CODE'
_TEXT	ENDS
;	COMDAT ?Flush@UD3DRenderDevice@@UAIXH@Z
_TEXT	SEGMENT PARA USE32 PUBLIC 'CODE'
_TEXT	ENDS
;	COMDAT ?PreRender@UD3DRenderDevice@@UAIXPAUFSceneNode@@@Z
_TEXT	SEGMENT PARA USE32 PUBLIC 'CODE'
_TEXT	ENDS
;	COMDAT ?Lock@UD3DRenderDevice@@UAIXVFColor@@MHVFPlane@@11KPAEPAH@Z
_TEXT	SEGMENT PARA USE32 PUBLIC 'CODE'
_TEXT	ENDS
;	COMDAT ?PrecacheTexture@UD3DRenderDevice@@UAIXAAUFTextureInfo@@KK@Z
_TEXT	SEGMENT PARA USE32 PUBLIC 'CODE'
_TEXT	ENDS
;	COMDAT ?Unlock@UD3DRenderDevice@@UAIXH@Z
_TEXT	SEGMENT PARA USE32 PUBLIC 'CODE'
_TEXT	ENDS
;	COMDAT ?DrawComplexSurface@UD3DRenderDevice@@UAIXPAUFSceneNode@@AAUFSurfaceInfo@@AAUFSurfaceFacet@@@Z
_TEXT	SEGMENT PARA USE32 PUBLIC 'CODE'
_TEXT	ENDS
;	COMDAT ?QueuePolygonDoes@UD3DRenderDevice@@UAI_NXZ
_TEXT	SEGMENT PARA USE32 PUBLIC 'CODE'
_TEXT	ENDS
;	COMDAT ?QueuePolygonBegin@UD3DRenderDevice@@UAI_NPAUFSceneNode@@@Z
_TEXT	SEGMENT PARA USE32 PUBLIC 'CODE'
_TEXT	ENDS
;	COMDAT ?QueuePolygonEnd@UD3DRenderDevice@@UAIXK@Z
_TEXT	SEGMENT PARA USE32 PUBLIC 'CODE'
_TEXT	ENDS
;	COMDAT ?QueuePolygon@UD3DRenderDevice@@UAIXPAUFTextureInfo@@PAPAUFTransTexture@@HKKPAVFSpanBuffer@@@Z
_TEXT	SEGMENT PARA USE32 PUBLIC 'CODE'
_TEXT	ENDS
;	COMDAT ?QueuePolygonBeginFast@UD3DRenderDevice@@UAI_NPAUFSceneNode@@@Z
_TEXT	SEGMENT PARA USE32 PUBLIC 'CODE'
_TEXT	ENDS
;	COMDAT ?QueuePolygonFast@UD3DRenderDevice@@UAIXPAPAUFTransTexture@@H@Z
_TEXT	SEGMENT PARA USE32 PUBLIC 'CODE'
_TEXT	ENDS
;	COMDAT ?QueuePolygonEndFast@UD3DRenderDevice@@UAIXXZ
_TEXT	SEGMENT PARA USE32 PUBLIC 'CODE'
_TEXT	ENDS
;	COMDAT ?RenderQueuedPolygonsForProjectors@UD3DRenderDevice@@QAEXK@Z
_TEXT	SEGMENT PARA USE32 PUBLIC 'CODE'
_TEXT	ENDS
;	COMDAT ?DrawGouraudPolygon@UD3DRenderDevice@@UAIXPAUFSceneNode@@AAUFTextureInfo@@PAPAUFTransTexture@@HKPAVFSpanBuffer@@K@Z
_TEXT	SEGMENT PARA USE32 PUBLIC 'CODE'
_TEXT	ENDS
;	COMDAT ?RotateAboutOrigin2D@UD3DRenderDevice@@QAEXMMAAM0M@Z
_TEXT	SEGMENT PARA USE32 PUBLIC 'CODE'
_TEXT	ENDS
;	COMDAT ?SetTextureClampMode@UD3DRenderDevice@@UAIXH@Z
_TEXT	SEGMENT PARA USE32 PUBLIC 'CODE'
_TEXT	ENDS
;	COMDAT ?DrawTile@UD3DRenderDevice@@UAIXPAUFSceneNode@@AAUFTextureInfo@@MMMMMMMMPAVFSpanBuffer@@MVFPlane@@3KKMMMM@Z
_TEXT	SEGMENT PARA USE32 PUBLIC 'CODE'
_TEXT	ENDS
;	COMDAT ?RecursiveSubdivideLine@UD3DRenderDevice@@QAIXPAVUCanvas@@PAVUTexture@@VFColor@@2MMKMVFVector@@333H@Z
_TEXT	SEGMENT PARA USE32 PUBLIC 'CODE'
_TEXT	ENDS
;	COMDAT ?SineWave@UD3DRenderDevice@@QAIXPAVUCanvas@@PAVUTexture@@VFColor@@2MMKMMMMVFVector@@333HM@Z
_TEXT	SEGMENT PARA USE32 PUBLIC 'CODE'
_TEXT	ENDS
;	COMDAT ?DoubleSineWave@UD3DRenderDevice@@QAIXPAVUCanvas@@PAVUTexture@@VFColor@@2MMKMMMMVFVector@@333HM@Z
_TEXT	SEGMENT PARA USE32 PUBLIC 'CODE'
_TEXT	ENDS
;	COMDAT ?SamplePoint@UD3DRenderDevice@@QAIMHHMMMM@Z
_TEXT	SEGMENT PARA USE32 PUBLIC 'CODE'
_TEXT	ENDS
;	COMDAT ?MovingGrid@UD3DRenderDevice@@QAIXPAVUCanvas@@PAVUTexture@@VFColor@@2MMKMMMMVFVector@@3H@Z
_TEXT	SEGMENT PARA USE32 PUBLIC 'CODE'
_TEXT	ENDS
;	COMDAT ?DrawSpline@UD3DRenderDevice@@QAIXAAVABeamSystem@@PAVUCanvas@@PAVUTexture@@VFColor@@3MMKMMMMVFVector@@4H@Z
_TEXT	SEGMENT PARA USE32 PUBLIC 'CODE'
_TEXT	ENDS
;	COMDAT ?dnDrawBeam@UD3DRenderDevice@@UAIXAAVABeamSystem@@PAUFSceneNode@@@Z
_TEXT	SEGMENT PARA USE32 PUBLIC 'CODE'
_TEXT	ENDS
;	COMDAT ?QueueParticleShutdown@UD3DRenderDevice@@QAIXXZ
_TEXT	SEGMENT PARA USE32 PUBLIC 'CODE'
_TEXT	ENDS
;	COMDAT ?QueuedParticleAlloc@UD3DRenderDevice@@QAEAAUQueuedParticle@1@PAVUTexture@@@Z
_TEXT	SEGMENT PARA USE32 PUBLIC 'CODE'
_TEXT	ENDS
;	COMDAT ?QueueParticleFlush@UD3DRenderDevice@@QAIXAAVAParticleSystem@@PAUFSceneNode@@@Z
_TEXT	SEGMENT PARA USE32 PUBLIC 'CODE'
_TEXT	ENDS
;	COMDAT ?dnDrawParticles@UD3DRenderDevice@@UAIXAAVASoftParticleSystem@@PAUFSceneNode@@@Z
_TEXT	SEGMENT PARA USE32 PUBLIC 'CODE'
_TEXT	ENDS
;	COMDAT ?QueuedLinesFlush@UD3DRenderDevice@@QAIXAAVABeamSystem@@PAUFSceneNode@@PAVUTexture@@K@Z
_TEXT	SEGMENT PARA USE32 PUBLIC 'CODE'
_TEXT	ENDS
;	COMDAT ?dnDraw3DLine@UD3DRenderDevice@@QAIXPAUFSceneNode@@PAVUTexture@@KVFVector@@2MMVFColor@@3_N@Z
_TEXT	SEGMENT PARA USE32 PUBLIC 'CODE'
_TEXT	ENDS
;	COMDAT ?Exec@UD3DRenderDevice@@UAEHPBGAAVFOutputDevice@@@Z
_TEXT	SEGMENT PARA USE32 PUBLIC 'CODE'
_TEXT	ENDS
;	COMDAT ?_Validate@UD3DRenderDevice@@UAIXPADH@Z
_TEXT	SEGMENT PARA USE32 PUBLIC 'CODE'
_TEXT	ENDS
;	COMDAT ?Queue3DLine@UD3DRenderDevice@@UAIXPAUFSceneNode@@VFPlane@@KVFVector@@2@Z
_TEXT	SEGMENT PARA USE32 PUBLIC 'CODE'
_TEXT	ENDS
;	COMDAT ?Queued3DLinesFlush@UD3DRenderDevice@@UAIXPAUFSceneNode@@@Z
_TEXT	SEGMENT PARA USE32 PUBLIC 'CODE'
_TEXT	ENDS
;	COMDAT ?Draw3DLine@UD3DRenderDevice@@UAIXPAUFSceneNode@@VFPlane@@KVFVector@@2@Z
_TEXT	SEGMENT PARA USE32 PUBLIC 'CODE'
_TEXT	ENDS
;	COMDAT ?Draw2DLine@UD3DRenderDevice@@UAIXPAUFSceneNode@@VFPlane@@KVFVector@@2@Z
_TEXT	SEGMENT PARA USE32 PUBLIC 'CODE'
_TEXT	ENDS
;	COMDAT ?Draw2DPoint@UD3DRenderDevice@@UAIXPAUFSceneNode@@VFPlane@@KMMMMM@Z
_TEXT	SEGMENT PARA USE32 PUBLIC 'CODE'
_TEXT	ENDS
;	COMDAT ?PushHit@UD3DRenderDevice@@UAIXPBEH@Z
_TEXT	SEGMENT PARA USE32 PUBLIC 'CODE'
_TEXT	ENDS
;	COMDAT ?PopHit@UD3DRenderDevice@@UAIXHH@Z
_TEXT	SEGMENT PARA USE32 PUBLIC 'CODE'
_TEXT	ENDS
;	COMDAT ?GetStats@UD3DRenderDevice@@UAIXPAG@Z
_TEXT	SEGMENT PARA USE32 PUBLIC 'CODE'
_TEXT	ENDS
;	COMDAT ?ClearZ@UD3DRenderDevice@@UAIXPAUFSceneNode@@@Z
_TEXT	SEGMENT PARA USE32 PUBLIC 'CODE'
_TEXT	ENDS
;	COMDAT ?ReadPixels@UD3DRenderDevice@@UAIXPAVFColor@@H@Z
_TEXT	SEGMENT PARA USE32 PUBLIC 'CODE'
_TEXT	ENDS
;	COMDAT ?EndFlash@UD3DRenderDevice@@UAIXXZ
_TEXT	SEGMENT PARA USE32 PUBLIC 'CODE'
_TEXT	ENDS
;	COMDAT ?SetZBias@UD3DRenderDevice@@QAIMM@Z
_TEXT	SEGMENT PARA USE32 PUBLIC 'CODE'
_TEXT	ENDS
;	COMDAT ?SetSrcBlend@UD3DRenderDevice@@QAI?AW4_D3DBLEND@@W42@@Z
_TEXT	SEGMENT PARA USE32 PUBLIC 'CODE'
_TEXT	ENDS
;	COMDAT ?SetDstBlend@UD3DRenderDevice@@QAI?AW4_D3DBLEND@@W42@@Z
_TEXT	SEGMENT PARA USE32 PUBLIC 'CODE'
_TEXT	ENDS
;	COMDAT ?SetAlphaBlendEnable@UD3DRenderDevice@@QAIHH@Z
_TEXT	SEGMENT PARA USE32 PUBLIC 'CODE'
_TEXT	ENDS
;	COMDAT ?BeginScene@UD3DRenderDevice@@QAIJXZ
_TEXT	SEGMENT PARA USE32 PUBLIC 'CODE'
_TEXT	ENDS
;	COMDAT ?EndScene@UD3DRenderDevice@@QAIJXZ
_TEXT	SEGMENT PARA USE32 PUBLIC 'CODE'
_TEXT	ENDS
;	COMDAT ?SetBlending@UD3DRenderDevice@@QAIXKK@Z
_TEXT	SEGMENT PARA USE32 PUBLIC 'CODE'
_TEXT	ENDS
;	COMDAT ?ReleaseOldestTexture@UD3DRenderDevice@@QAEXXZ
_TEXT	SEGMENT PARA USE32 PUBLIC 'CODE'
_TEXT	ENDS
;	COMDAT ?SetTextureNULL@UD3DRenderDevice@@QAIXK@Z
_TEXT	SEGMENT PARA USE32 PUBLIC 'CODE'
_TEXT	ENDS
;	COMDAT ?SetTexture@UD3DRenderDevice@@QAIXKAAUFTextureInfo@@KHKH@Z
_TEXT	SEGMENT PARA USE32 PUBLIC 'CODE'
_TEXT	ENDS
;	COMDAT ?CleanupRenderTargetResources@UD3DRenderDevice@@QAEXXZ
_TEXT	SEGMENT PARA USE32 PUBLIC 'CODE'
_TEXT	ENDS
;	COMDAT ?RecognizePixelFormat@UD3DRenderDevice@@QAEXAAUFPixFormat@@W4_D3DFORMAT@@PBG@Z
_TEXT	SEGMENT PARA USE32 PUBLIC 'CODE'
_TEXT	ENDS
;	COMDAT ?SetRes@UD3DRenderDevice@@UAIHHHHH@Z
_TEXT	SEGMENT PARA USE32 PUBLIC 'CODE'
_TEXT	ENDS
;	COMDAT ?UnSetRes@UD3DRenderDevice@@QAIHPBGJ@Z
_TEXT	SEGMENT PARA USE32 PUBLIC 'CODE'
_TEXT	ENDS
;	COMDAT ?UpdateModulation@UD3DRenderDevice@@QAEKAAHAAVFPlane@@ABV2@@Z
_TEXT	SEGMENT PARA USE32 PUBLIC 'CODE'
_TEXT	ENDS
;	COMDAT ?SetDistanceFog@UD3DRenderDevice@@QAEXH@Z
_TEXT	SEGMENT PARA USE32 PUBLIC 'CODE'
_TEXT	ENDS
;	COMDAT ?InitRenderTargetRes@UD3DRenderDevice@@QAEHPAURenderTargetInfo@1@@Z
_TEXT	SEGMENT PARA USE32 PUBLIC 'CODE'
_TEXT	ENDS
;	COMDAT ?ShutdownRenderTargetRes@UD3DRenderDevice@@QAEHPAURenderTargetInfo@1@@Z
_TEXT	SEGMENT PARA USE32 PUBLIC 'CODE'
_TEXT	ENDS
;	COMDAT ?CreateRenderTarget@UD3DRenderDevice@@UAEPAXHH@Z
_TEXT	SEGMENT PARA USE32 PUBLIC 'CODE'
_TEXT	ENDS
;	COMDAT ?DestroyRenderTarget@UD3DRenderDevice@@UAEXPAPAX@Z
_TEXT	SEGMENT PARA USE32 PUBLIC 'CODE'
_TEXT	ENDS
;	COMDAT ?SetRenderTarget@UD3DRenderDevice@@UAEXPAX0@Z
_TEXT	SEGMENT PARA USE32 PUBLIC 'CODE'
_TEXT	ENDS
;	COMDAT ?RestoreRenderTarget@UD3DRenderDevice@@UAEXXZ
_TEXT	SEGMENT PARA USE32 PUBLIC 'CODE'
_TEXT	ENDS
;	COMDAT ?DrawTex@UD3DRenderDevice@@QAIXPAUFSceneNode@@MMMMMMMMPAUIDirect3DTexture8@@@Z
_TEXT	SEGMENT PARA USE32 PUBLIC 'CODE'
_TEXT	ENDS
;	COMDAT ?AddProjector@UD3DRenderDevice@@UAIXPAUFSceneNode@@PAXPAUFTextureInfo@@MMM@Z
_TEXT	SEGMENT PARA USE32 PUBLIC 'CODE'
_TEXT	ENDS
;	COMDAT ?ResetProjectors@UD3DRenderDevice@@UAIXXZ
_TEXT	SEGMENT PARA USE32 PUBLIC 'CODE'
_TEXT	ENDS
;	COMDAT ??0UD3DRenderDevice@@QAE@ABV0@@Z
_TEXT	SEGMENT PARA USE32 PUBLIC 'CODE'
_TEXT	ENDS
;	COMDAT ??4UD3DRenderDevice@@QAEAAV0@ABV0@@Z
_TEXT	SEGMENT PARA USE32 PUBLIC 'CODE'
_TEXT	ENDS
;	COMDAT ??_GUD3DRenderDevice@@UAEPAXI@Z
_TEXT	SEGMENT PARA USE32 PUBLIC 'CODE'
_TEXT	ENDS
;	COMDAT ??_EUD3DRenderDevice@@UAEPAXI@Z
_TEXT	SEGMENT PARA USE32 PUBLIC 'CODE'
_TEXT	ENDS
;	COMDAT ??0FTexFiller@UD3DRenderDevice@@QAE@XZ
_TEXT	SEGMENT PARA USE32 PUBLIC 'CODE'
_TEXT	ENDS
;	COMDAT __imp_??0URenderDevice@@QAE@XZ
_TEXT	SEGMENT PARA USE32 PUBLIC 'CODE'
_TEXT	ENDS
;	COMDAT ??0FTexInfo@UD3DRenderDevice@@QAE@XZ
_TEXT	SEGMENT PARA USE32 PUBLIC 'CODE'
_TEXT	ENDS
;	COMDAT ??0FD3DTLVertex@@QAE@XZ
_TEXT	SEGMENT PARA USE32 PUBLIC 'CODE'
_TEXT	ENDS
;	COMDAT __imp_??0FTextureInfo@@QAE@XZ
_TEXT	SEGMENT PARA USE32 PUBLIC 'CODE'
_TEXT	ENDS
;	COMDAT ??0FD3DScreenVertex@@QAE@XZ
_TEXT	SEGMENT PARA USE32 PUBLIC 'CODE'
_TEXT	ENDS
;	COMDAT ??0ProjectorInfo@UD3DRenderDevice@@QAE@XZ
_TEXT	SEGMENT PARA USE32 PUBLIC 'CODE'
_TEXT	ENDS
;	COMDAT __imp_??0URenderDevice@@QAE@ABV0@@Z
_TEXT	SEGMENT PARA USE32 PUBLIC 'CODE'
_TEXT	ENDS
;	COMDAT ??0FTexFillerDXT1@UD3DRenderDevice@@QAE@ABU01@@Z
_TEXT	SEGMENT PARA USE32 PUBLIC 'CODE'
_TEXT	ENDS
;	COMDAT ??0FTexFiller8888_RGBA8@UD3DRenderDevice@@QAE@ABU01@@Z
_TEXT	SEGMENT PARA USE32 PUBLIC 'CODE'
_TEXT	ENDS
;	COMDAT ??0FTexFiller8888_RGBA7@UD3DRenderDevice@@QAE@ABU01@@Z
_TEXT	SEGMENT PARA USE32 PUBLIC 'CODE'
_TEXT	ENDS
;	COMDAT ??0FTexFiller8888_P8@UD3DRenderDevice@@QAE@ABU01@@Z
_TEXT	SEGMENT PARA USE32 PUBLIC 'CODE'
_TEXT	ENDS
;	COMDAT ??0FTexFiller1555_RGBA7@UD3DRenderDevice@@QAE@ABU01@@Z
_TEXT	SEGMENT PARA USE32 PUBLIC 'CODE'
_TEXT	ENDS
;	COMDAT ??0FTexFiller1555_P8@UD3DRenderDevice@@QAE@ABU01@@Z
_TEXT	SEGMENT PARA USE32 PUBLIC 'CODE'
_TEXT	ENDS
;	COMDAT ??0FTexFillerP8_P8@UD3DRenderDevice@@QAE@ABU01@@Z
_TEXT	SEGMENT PARA USE32 PUBLIC 'CODE'
_TEXT	ENDS
;	COMDAT ??0FD3DTLVertex@@QAE@ABU0@@Z
_TEXT	SEGMENT PARA USE32 PUBLIC 'CODE'
_TEXT	ENDS
;	COMDAT __imp_??4URenderDevice@@QAEAAV0@ABV0@@Z
_TEXT	SEGMENT PARA USE32 PUBLIC 'CODE'
_TEXT	ENDS
;	COMDAT ??4FTexFillerDXT1@UD3DRenderDevice@@QAEAAU01@ABU01@@Z
_TEXT	SEGMENT PARA USE32 PUBLIC 'CODE'
_TEXT	ENDS
;	COMDAT ??4FTexFiller8888_RGBA8@UD3DRenderDevice@@QAEAAU01@ABU01@@Z
_TEXT	SEGMENT PARA USE32 PUBLIC 'CODE'
_TEXT	ENDS
;	COMDAT ??4FTexFiller8888_RGBA7@UD3DRenderDevice@@QAEAAU01@ABU01@@Z
_TEXT	SEGMENT PARA USE32 PUBLIC 'CODE'
_TEXT	ENDS
;	COMDAT ??4FTexFiller8888_P8@UD3DRenderDevice@@QAEAAU01@ABU01@@Z
_TEXT	SEGMENT PARA USE32 PUBLIC 'CODE'
_TEXT	ENDS
;	COMDAT ??4FTexFiller1555_RGBA7@UD3DRenderDevice@@QAEAAU01@ABU01@@Z
_TEXT	SEGMENT PARA USE32 PUBLIC 'CODE'
_TEXT	ENDS
;	COMDAT ??4FTexFiller1555_P8@UD3DRenderDevice@@QAEAAU01@ABU01@@Z
_TEXT	SEGMENT PARA USE32 PUBLIC 'CODE'
_TEXT	ENDS
;	COMDAT ??4FTexFillerP8_P8@UD3DRenderDevice@@QAEAAU01@ABU01@@Z
_TEXT	SEGMENT PARA USE32 PUBLIC 'CODE'
_TEXT	ENDS
;	COMDAT __imp_??0USubsystem@@QAE@ABV0@@Z
_TEXT	SEGMENT PARA USE32 PUBLIC 'CODE'
_TEXT	ENDS
;	COMDAT ??0FTexFiller@UD3DRenderDevice@@QAE@ABU01@@Z
_TEXT	SEGMENT PARA USE32 PUBLIC 'CODE'
_TEXT	ENDS
;	COMDAT __imp_??4USubsystem@@QAEAAV0@ABV0@@Z
_TEXT	SEGMENT PARA USE32 PUBLIC 'CODE'
_TEXT	ENDS
;	COMDAT ??4FTexFiller@UD3DRenderDevice@@QAEAAU01@ABU01@@Z
_TEXT	SEGMENT PARA USE32 PUBLIC 'CODE'
_TEXT	ENDS
;	COMDAT __imp_??0FExec@@QAE@ABV0@@Z
_TEXT	SEGMENT PARA USE32 PUBLIC 'CODE'
_TEXT	ENDS
;	COMDAT __imp_??4FExec@@QAEAAV0@ABV0@@Z
_TEXT	SEGMENT PARA USE32 PUBLIC 'CODE'
_TEXT	ENDS
;	COMDAT _DllMain@12
_TEXT	SEGMENT PARA USE32 PUBLIC 'CODE'
_TEXT	ENDS
;	COMDAT _$E313
_TEXT	SEGMENT PARA USE32 PUBLIC 'CODE'
_TEXT	ENDS
;	COMDAT _$E314
_TEXT	SEGMENT PARA USE32 PUBLIC 'CODE'
_TEXT	ENDS
;	COMDAT _$E316
_TEXT	SEGMENT PARA USE32 PUBLIC 'CODE'
_TEXT	ENDS
;	COMDAT _$E317
_TEXT	SEGMENT PARA USE32 PUBLIC 'CODE'
_TEXT	ENDS
;	COMDAT _$E319
_TEXT	SEGMENT PARA USE32 PUBLIC 'CODE'
_TEXT	ENDS
;	COMDAT _$E320
_TEXT	SEGMENT PARA USE32 PUBLIC 'CODE'
_TEXT	ENDS
;	COMDAT ??0?$TArray@G@@QAE@XZ
_TEXT	SEGMENT PARA USE32 PUBLIC 'CODE'
_TEXT	ENDS
;	COMDAT ??0?$TArray@G@@QAE@H@Z
_TEXT	SEGMENT PARA USE32 PUBLIC 'CODE'
_TEXT	ENDS
;	COMDAT ??0?$TArray@G@@QAE@W4ENoInit@@@Z
_TEXT	SEGMENT PARA USE32 PUBLIC 'CODE'
_TEXT	ENDS
;	COMDAT ??1?$TArray@G@@QAE@XZ
_TEXT	SEGMENT PARA USE32 PUBLIC 'CODE'
_TEXT	ENDS
;	COMDAT ??R?$TArray@G@@QAEAAGH@Z
_TEXT	SEGMENT PARA USE32 PUBLIC 'CODE'
_TEXT	ENDS
;	COMDAT ??R?$TArray@G@@QBEABGH@Z
_TEXT	SEGMENT PARA USE32 PUBLIC 'CODE'
_TEXT	ENDS
;	COMDAT ?Shrink@?$TArray@G@@QAEXXZ
_TEXT	SEGMENT PARA USE32 PUBLIC 'CODE'
_TEXT	ENDS
;	COMDAT ?Add@?$TArray@G@@QAEHHH@Z
_TEXT	SEGMENT PARA USE32 PUBLIC 'CODE'
_TEXT	ENDS
;	COMDAT ?Empty@?$TArray@G@@QAEXH@Z
_TEXT	SEGMENT PARA USE32 PUBLIC 'CODE'
_TEXT	ENDS
;	COMDAT ??0?$TArray@E@@QAE@XZ
_TEXT	SEGMENT PARA USE32 PUBLIC 'CODE'
_TEXT	ENDS
;	COMDAT ??0?$TArray@E@@QAE@ABV0@@Z
_TEXT	SEGMENT PARA USE32 PUBLIC 'CODE'
_TEXT	ENDS
;	COMDAT ??1?$TArray@E@@QAE@XZ
_TEXT	SEGMENT PARA USE32 PUBLIC 'CODE'
_TEXT	ENDS
;	COMDAT ??R?$TArray@E@@QAEAAEH@Z
_TEXT	SEGMENT PARA USE32 PUBLIC 'CODE'
_TEXT	ENDS
;	COMDAT ??R?$TArray@E@@QBEABEH@Z
_TEXT	SEGMENT PARA USE32 PUBLIC 'CODE'
_TEXT	ENDS
;	COMDAT ??6@YAAAVFArchive@@AAV0@AAV?$TArray@E@@@Z
_TEXT	SEGMENT PARA USE32 PUBLIC 'CODE'
_TEXT	ENDS
;	COMDAT ?Add@?$TArray@E@@QAEHHH@Z
_TEXT	SEGMENT PARA USE32 PUBLIC 'CODE'
_TEXT	ENDS
;	COMDAT ?Remove@?$TArray@E@@QAEXHH@Z
_TEXT	SEGMENT PARA USE32 PUBLIC 'CODE'
_TEXT	ENDS
;	COMDAT ??4?$TArray@E@@QAEAAV0@ABV0@@Z
_TEXT	SEGMENT PARA USE32 PUBLIC 'CODE'
_TEXT	ENDS
;	COMDAT ??R?$TArray@PAUFNameEntry@@@@QAEAAPAUFNameEntry@@H@Z
_TEXT	SEGMENT PARA USE32 PUBLIC 'CODE'
_TEXT	ENDS
;	COMDAT ??0?$TArray@H@@QAE@XZ
_TEXT	SEGMENT PARA USE32 PUBLIC 'CODE'
_TEXT	ENDS
;	COMDAT ??0?$TArray@H@@QAE@ABV0@@Z
_TEXT	SEGMENT PARA USE32 PUBLIC 'CODE'
_TEXT	ENDS
;	COMDAT ??1?$TArray@H@@QAE@XZ
_TEXT	SEGMENT PARA USE32 PUBLIC 'CODE'
_TEXT	ENDS
;	COMDAT ??R?$TArray@H@@QAEAAHH@Z
_TEXT	SEGMENT PARA USE32 PUBLIC 'CODE'
_TEXT	ENDS
;	COMDAT ?Remove@?$TArray@H@@QAEXHH@Z
_TEXT	SEGMENT PARA USE32 PUBLIC 'CODE'
_TEXT	ENDS
;	COMDAT ??4?$TArray@H@@QAEAAV0@ABV0@@Z
_TEXT	SEGMENT PARA USE32 PUBLIC 'CODE'
_TEXT	ENDS
;	COMDAT ?AddItem@?$TArray@H@@QAEHABH@Z
_TEXT	SEGMENT PARA USE32 PUBLIC 'CODE'
_TEXT	ENDS
;	COMDAT ??0?$TArray@VFString@@@@QAE@XZ
_TEXT	SEGMENT PARA USE32 PUBLIC 'CODE'
_TEXT	ENDS
;	COMDAT ??1?$TArray@VFString@@@@QAE@XZ
_TEXT	SEGMENT PARA USE32 PUBLIC 'CODE'
_TEXT	ENDS
;	COMDAT ??R?$TArray@PAVUObject@@@@QAEAAPAVUObject@@H@Z
_TEXT	SEGMENT PARA USE32 PUBLIC 'CODE'
_TEXT	ENDS
;	COMDAT ??R?$TArray@VFFieldNetCache@@@@QAEAAVFFieldNetCache@@H@Z
_TEXT	SEGMENT PARA USE32 PUBLIC 'CODE'
_TEXT	ENDS
;	COMDAT ?FindRef@?$TMapBase@PAVUObject@@PAVFFieldNetCache@@@@QAEPAVFFieldNetCache@@ABQAVUObject@@@Z
_TEXT	SEGMENT PARA USE32 PUBLIC 'CODE'
_TEXT	ENDS
;	COMDAT ??0?$TArray@VFPackageInfo@@@@QAE@XZ
_TEXT	SEGMENT PARA USE32 PUBLIC 'CODE'
_TEXT	ENDS
;	COMDAT ??1?$TArray@VFPackageInfo@@@@QAE@XZ
_TEXT	SEGMENT PARA USE32 PUBLIC 'CODE'
_TEXT	ENDS
;	COMDAT ??0?$TMapBase@PAVUObject@@H@@QAE@XZ
_TEXT	SEGMENT PARA USE32 PUBLIC 'CODE'
_TEXT	ENDS
;	COMDAT ??1?$TMapBase@PAVUObject@@H@@QAE@XZ
_TEXT	SEGMENT PARA USE32 PUBLIC 'CODE'
_TEXT	ENDS
;	COMDAT ??0?$TMapBase@PAVUObject@@PAVFClassNetCache@@@@QAE@XZ
_TEXT	SEGMENT PARA USE32 PUBLIC 'CODE'
_TEXT	ENDS
;	COMDAT ??1?$TMapBase@PAVUObject@@PAVFClassNetCache@@@@QAE@XZ
_TEXT	SEGMENT PARA USE32 PUBLIC 'CODE'
_TEXT	ENDS
;	COMDAT ??0?$TArray@VFName@@@@QAE@XZ
_TEXT	SEGMENT PARA USE32 PUBLIC 'CODE'
_TEXT	ENDS
;	COMDAT ??1?$TArray@VFName@@@@QAE@XZ
_TEXT	SEGMENT PARA USE32 PUBLIC 'CODE'
_TEXT	ENDS
;	COMDAT ??1?$TArray@UFRepRecord@@@@QAE@XZ
_TEXT	SEGMENT PARA USE32 PUBLIC 'CODE'
_TEXT	ENDS
;	COMDAT ??1?$TArray@PAVUField@@@@QAE@XZ
_TEXT	SEGMENT PARA USE32 PUBLIC 'CODE'
_TEXT	ENDS
;	COMDAT ??1?$TArray@VFClassDependency@@@@QAE@XZ
_TEXT	SEGMENT PARA USE32 PUBLIC 'CODE'
_TEXT	ENDS
;	COMDAT ??R?$TArray@VFClassDependency@@@@QAEAAVFClassDependency@@H@Z
_TEXT	SEGMENT PARA USE32 PUBLIC 'CODE'
_TEXT	ENDS
;	COMDAT ??0?$TFieldIterator@VUProperty@@@@QAE@PAVUStruct@@@Z
_TEXT	SEGMENT PARA USE32 PUBLIC 'CODE'
_TEXT	ENDS
;	COMDAT ??B?$TFieldIterator@VUProperty@@@@QAEHXZ
_TEXT	SEGMENT PARA USE32 PUBLIC 'CODE'
_TEXT	ENDS
;	COMDAT ??E?$TFieldIterator@VUProperty@@@@QAEXXZ
_TEXT	SEGMENT PARA USE32 PUBLIC 'CODE'
_TEXT	ENDS
;	COMDAT ??C?$TFieldIterator@VUProperty@@@@QAEPAVUProperty@@XZ
_TEXT	SEGMENT PARA USE32 PUBLIC 'CODE'
_TEXT	ENDS
;	COMDAT ??0?$TArray@UFGenerationInfo@@@@QAE@XZ
_TEXT	SEGMENT PARA USE32 PUBLIC 'CODE'
_TEXT	ENDS
;	COMDAT ??0?$TArray@UFGenerationInfo@@@@QAE@H@Z
_TEXT	SEGMENT PARA USE32 PUBLIC 'CODE'
_TEXT	ENDS
;	COMDAT ??1?$TArray@UFGenerationInfo@@@@QAE@XZ
_TEXT	SEGMENT PARA USE32 PUBLIC 'CODE'
_TEXT	ENDS
;	COMDAT ??R?$TArray@UFGenerationInfo@@@@QAEAAUFGenerationInfo@@H@Z
_TEXT	SEGMENT PARA USE32 PUBLIC 'CODE'
_TEXT	ENDS
;	COMDAT ?Empty@?$TArray@UFGenerationInfo@@@@QAEXH@Z
_TEXT	SEGMENT PARA USE32 PUBLIC 'CODE'
_TEXT	ENDS
;	COMDAT ??4?$TArray@UFGenerationInfo@@@@QAEAAV0@ABV0@@Z
_TEXT	SEGMENT PARA USE32 PUBLIC 'CODE'
_TEXT	ENDS
;	COMDAT ??0?$TArray@UFObjectImport@@@@QAE@XZ
_TEXT	SEGMENT PARA USE32 PUBLIC 'CODE'
_TEXT	ENDS
;	COMDAT ??1?$TArray@UFObjectImport@@@@QAE@XZ
_TEXT	SEGMENT PARA USE32 PUBLIC 'CODE'
_TEXT	ENDS
;	COMDAT ??0?$TArray@UFObjectExport@@@@QAE@XZ
_TEXT	SEGMENT PARA USE32 PUBLIC 'CODE'
_TEXT	ENDS
;	COMDAT ??1?$TArray@UFObjectExport@@@@QAE@XZ
_TEXT	SEGMENT PARA USE32 PUBLIC 'CODE'
_TEXT	ENDS
;	COMDAT ??0?$TArray@PAVFLazyLoader@@@@QAE@XZ
_TEXT	SEGMENT PARA USE32 PUBLIC 'CODE'
_TEXT	ENDS
;	COMDAT ??1?$TArray@PAVFLazyLoader@@@@QAE@XZ
_TEXT	SEGMENT PARA USE32 PUBLIC 'CODE'
_TEXT	ENDS
;	COMDAT ??0?$TTransArray@VFPoly@@@@QAE@PAVUObject@@H@Z
_TEXT	SEGMENT PARA USE32 PUBLIC 'CODE'
_TEXT	ENDS
;	COMDAT ?Empty@?$TTransArray@VFPoly@@@@QAEXH@Z
_TEXT	SEGMENT PARA USE32 PUBLIC 'CODE'
_TEXT	ENDS
;	COMDAT ?AddZeroed@?$TTransArray@VFPoly@@@@QAEHH@Z
_TEXT	SEGMENT PARA USE32 PUBLIC 'CODE'
_TEXT	ENDS
;	COMDAT ??6@YAAAVFArchive@@AAV0@AAV?$TTransArray@VFPoly@@@@@Z
_TEXT	SEGMENT PARA USE32 PUBLIC 'CODE'
_TEXT	ENDS
;	COMDAT ??1?$TArray@VFPoly@@@@QAE@XZ
_TEXT	SEGMENT PARA USE32 PUBLIC 'CODE'
_TEXT	ENDS
;	COMDAT ??R?$TArray@VFPoly@@@@QAEAAVFPoly@@H@Z
_TEXT	SEGMENT PARA USE32 PUBLIC 'CODE'
_TEXT	ENDS
;	COMDAT ?CountBytes@?$TArray@VFPoly@@@@QAEXAAVFArchive@@@Z
_TEXT	SEGMENT PARA USE32 PUBLIC 'CODE'
_TEXT	ENDS
;	COMDAT ??0?$TTransArray@VFBspNode@@@@QAE@PAVUObject@@H@Z
_TEXT	SEGMENT PARA USE32 PUBLIC 'CODE'
_TEXT	ENDS
;	COMDAT ??1?$TArray@VFBspNode@@@@QAE@XZ
_TEXT	SEGMENT PARA USE32 PUBLIC 'CODE'
_TEXT	ENDS
;	COMDAT ??R?$TArray@VFBspNode@@@@QAEAAVFBspNode@@H@Z
_TEXT	SEGMENT PARA USE32 PUBLIC 'CODE'
_TEXT	ENDS
;	COMDAT ??0?$TTransArray@VFVert@@@@QAE@PAVUObject@@H@Z
_TEXT	SEGMENT PARA USE32 PUBLIC 'CODE'
_TEXT	ENDS
;	COMDAT ??1?$TArray@VFVert@@@@QAE@XZ
_TEXT	SEGMENT PARA USE32 PUBLIC 'CODE'
_TEXT	ENDS
;	COMDAT ??0?$TTransArray@VFVector@@@@QAE@PAVUObject@@H@Z
_TEXT	SEGMENT PARA USE32 PUBLIC 'CODE'
_TEXT	ENDS
;	COMDAT ??0?$TArray@VFVector@@@@QAE@XZ
_TEXT	SEGMENT PARA USE32 PUBLIC 'CODE'
_TEXT	ENDS
;	COMDAT ??1?$TArray@VFVector@@@@QAE@XZ
_TEXT	SEGMENT PARA USE32 PUBLIC 'CODE'
_TEXT	ENDS
;	COMDAT ??R?$TArray@VFVector@@@@QAEAAVFVector@@H@Z
_TEXT	SEGMENT PARA USE32 PUBLIC 'CODE'
_TEXT	ENDS
;	COMDAT ?AddUniqueItem@?$TArray@VFVector@@@@QAEHABVFVector@@@Z
_TEXT	SEGMENT PARA USE32 PUBLIC 'CODE'
_TEXT	ENDS
;	COMDAT ??0?$TTransArray@VFBspSurf@@@@QAE@PAVUObject@@H@Z
_TEXT	SEGMENT PARA USE32 PUBLIC 'CODE'
_TEXT	ENDS
;	COMDAT ??1?$TArray@VFBspSurf@@@@QAE@XZ
_TEXT	SEGMENT PARA USE32 PUBLIC 'CODE'
_TEXT	ENDS
;	COMDAT ??R?$TArray@VFBspSurf@@@@QAEAAVFBspSurf@@H@Z
_TEXT	SEGMENT PARA USE32 PUBLIC 'CODE'
_TEXT	ENDS
;	COMDAT ??0?$TArray@VFLightMapIndex@@@@QAE@XZ
_TEXT	SEGMENT PARA USE32 PUBLIC 'CODE'
_TEXT	ENDS
;	COMDAT ??1?$TArray@VFLightMapIndex@@@@QAE@XZ
_TEXT	SEGMENT PARA USE32 PUBLIC 'CODE'
_TEXT	ENDS
;	COMDAT ??R?$TArray@VFLightMapIndex@@@@QAEAAVFLightMapIndex@@H@Z
_TEXT	SEGMENT PARA USE32 PUBLIC 'CODE'
_TEXT	ENDS
;	COMDAT ??0?$TArray@VFBox@@@@QAE@XZ
_TEXT	SEGMENT PARA USE32 PUBLIC 'CODE'
_TEXT	ENDS
;	COMDAT ??1?$TArray@VFBox@@@@QAE@XZ
_TEXT	SEGMENT PARA USE32 PUBLIC 'CODE'
_TEXT	ENDS
;	COMDAT ??0?$TArray@VFLeaf@@@@QAE@XZ
_TEXT	SEGMENT PARA USE32 PUBLIC 'CODE'
_TEXT	ENDS
;	COMDAT ??1?$TArray@VFLeaf@@@@QAE@XZ
_TEXT	SEGMENT PARA USE32 PUBLIC 'CODE'
_TEXT	ENDS
;	COMDAT ??0?$TArray@PAVAActor@@@@QAE@XZ
_TEXT	SEGMENT PARA USE32 PUBLIC 'CODE'
_TEXT	ENDS
;	COMDAT ??1?$TArray@PAVAActor@@@@QAE@XZ
_TEXT	SEGMENT PARA USE32 PUBLIC 'CODE'
_TEXT	ENDS
;	COMDAT ??R?$TArray@PAVAActor@@@@QAEAAPAVAActor@@H@Z
_TEXT	SEGMENT PARA USE32 PUBLIC 'CODE'
_TEXT	ENDS
;	COMDAT ??1?$TArray@VFColor@@@@QAE@XZ
_TEXT	SEGMENT PARA USE32 PUBLIC 'CODE'
_TEXT	ENDS
;	COMDAT ??R?$TArray@VFColor@@@@QAEAAVFColor@@H@Z
_TEXT	SEGMENT PARA USE32 PUBLIC 'CODE'
_TEXT	ENDS
;	COMDAT ??0?$TLazyArray@E@@QAE@H@Z
_TEXT	SEGMENT PARA USE32 PUBLIC 'CODE'
_TEXT	ENDS
;	COMDAT ??1?$TLazyArray@E@@QAE@XZ
_TEXT	SEGMENT PARA USE32 PUBLIC 'CODE'
_TEXT	ENDS
;	COMDAT ?Load@?$TLazyArray@E@@UAEXXZ
_TEXT	SEGMENT PARA USE32 PUBLIC 'CODE'
_TEXT	ENDS
;	COMDAT ?Unload@?$TLazyArray@E@@UAEXXZ
_TEXT	SEGMENT PARA USE32 PUBLIC 'CODE'
_TEXT	ENDS
;	COMDAT ??6@YAAAVFArchive@@AAV0@AAV?$TLazyArray@E@@@Z
_TEXT	SEGMENT PARA USE32 PUBLIC 'CODE'
_TEXT	ENDS
;	COMDAT ??1?$TArray@UFMipmap@@@@QAE@XZ
_TEXT	SEGMENT PARA USE32 PUBLIC 'CODE'
_TEXT	ENDS
;	COMDAT ??R?$TArray@UFMipmap@@@@QAEAAUFMipmap@@H@Z
_TEXT	SEGMENT PARA USE32 PUBLIC 'CODE'
_TEXT	ENDS
;	COMDAT ??6@YAAAVFArchive@@AAV0@AAV?$TArray@UFFontCharacter@@@@@Z
_TEXT	SEGMENT PARA USE32 PUBLIC 'CODE'
_TEXT	ENDS
;	COMDAT ??1?$TArray@UFFontPage@@@@QAE@XZ
_TEXT	SEGMENT PARA USE32 PUBLIC 'CODE'
_TEXT	ENDS
;	COMDAT ??1?$TMapBase@GH@@QAE@XZ
_TEXT	SEGMENT PARA USE32 PUBLIC 'CODE'
_TEXT	ENDS
;	COMDAT ??0?$TArray@M@@QAE@XZ
_TEXT	SEGMENT PARA USE32 PUBLIC 'CODE'
_TEXT	ENDS
;	COMDAT ??1?$TArray@M@@QAE@XZ
_TEXT	SEGMENT PARA USE32 PUBLIC 'CODE'
_TEXT	ENDS
;	COMDAT ??0?$TArray@UFMeshDecalTri@@@@QAE@XZ
_TEXT	SEGMENT PARA USE32 PUBLIC 'CODE'
_TEXT	ENDS
;	COMDAT ??1?$TArray@UFMeshDecalTri@@@@QAE@XZ
_TEXT	SEGMENT PARA USE32 PUBLIC 'CODE'
_TEXT	ENDS
;	COMDAT ??0?$TArray@PAVAParticleCollisionActor@@@@QAE@XZ
_TEXT	SEGMENT PARA USE32 PUBLIC 'CODE'
_TEXT	ENDS
;	COMDAT ??1?$TArray@PAVAParticleCollisionActor@@@@QAE@XZ
_TEXT	SEGMENT PARA USE32 PUBLIC 'CODE'
_TEXT	ENDS
;	COMDAT ??0?$TTransArray@PAVAActor@@@@QAE@PAVUObject@@H@Z
_TEXT	SEGMENT PARA USE32 PUBLIC 'CODE'
_TEXT	ENDS
;	COMDAT ??0?$TArray@VFReachSpec@@@@QAE@XZ
_TEXT	SEGMENT PARA USE32 PUBLIC 'CODE'
_TEXT	ENDS
;	COMDAT ??1?$TArray@VFReachSpec@@@@QAE@XZ
_TEXT	SEGMENT PARA USE32 PUBLIC 'CODE'
_TEXT	ENDS
;	COMDAT ??0?$TMapBase@VFString@@V1@@@QAE@XZ
_TEXT	SEGMENT PARA USE32 PUBLIC 'CODE'
_TEXT	ENDS
;	COMDAT ??1?$TMapBase@VFString@@V1@@@QAE@XZ
_TEXT	SEGMENT PARA USE32 PUBLIC 'CODE'
_TEXT	ENDS
;	COMDAT ??0?$TMapBase@VFName@@PAVAActor@@@@QAE@XZ
_TEXT	SEGMENT PARA USE32 PUBLIC 'CODE'
_TEXT	ENDS
;	COMDAT ??1?$TMapBase@VFName@@PAVAActor@@@@QAE@XZ
_TEXT	SEGMENT PARA USE32 PUBLIC 'CODE'
_TEXT	ENDS
;	COMDAT ??0?$TMapBase@VFString@@PAVUFont@@@@QAE@XZ
_TEXT	SEGMENT PARA USE32 PUBLIC 'CODE'
_TEXT	ENDS
;	COMDAT ??1?$TMapBase@VFString@@PAVUFont@@@@QAE@XZ
_TEXT	SEGMENT PARA USE32 PUBLIC 'CODE'
_TEXT	ENDS
;	COMDAT ??1?$TArray@PAVUViewport@@@@QAE@XZ
_TEXT	SEGMENT PARA USE32 PUBLIC 'CODE'
_TEXT	ENDS
;	COMDAT ??0?$TArray@VFMeshAnimNotify@@@@QAE@XZ
_TEXT	SEGMENT PARA USE32 PUBLIC 'CODE'
_TEXT	ENDS
;	COMDAT ??1?$TArray@VFMeshAnimNotify@@@@QAE@XZ
_TEXT	SEGMENT PARA USE32 PUBLIC 'CODE'
_TEXT	ENDS
;	COMDAT ??6@YAAAVFArchive@@AAV0@AAV?$TArray@VFMeshAnimNotify@@@@@Z
_TEXT	SEGMENT PARA USE32 PUBLIC 'CODE'
_TEXT	ENDS
;	COMDAT ??1?$TLazyArray@UFMeshVert@@@@QAE@XZ
_TEXT	SEGMENT PARA USE32 PUBLIC 'CODE'
_TEXT	ENDS
;	COMDAT ?Load@?$TLazyArray@UFMeshVert@@@@UAEXXZ
_TEXT	SEGMENT PARA USE32 PUBLIC 'CODE'
_TEXT	ENDS
;	COMDAT ?Unload@?$TLazyArray@UFMeshVert@@@@UAEXXZ
_TEXT	SEGMENT PARA USE32 PUBLIC 'CODE'
_TEXT	ENDS
;	COMDAT ??1?$TLazyArray@UFMeshTri@@@@QAE@XZ
_TEXT	SEGMENT PARA USE32 PUBLIC 'CODE'
_TEXT	ENDS
;	COMDAT ?Load@?$TLazyArray@UFMeshTri@@@@UAEXXZ
_TEXT	SEGMENT PARA USE32 PUBLIC 'CODE'
_TEXT	ENDS
;	COMDAT ?Unload@?$TLazyArray@UFMeshTri@@@@UAEXXZ
_TEXT	SEGMENT PARA USE32 PUBLIC 'CODE'
_TEXT	ENDS
;	COMDAT ??1?$TArray@VFMeshAnimSeq@@@@QAE@XZ
_TEXT	SEGMENT PARA USE32 PUBLIC 'CODE'
_TEXT	ENDS
;	COMDAT ??1?$TLazyArray@UFMeshVertConnect@@@@QAE@XZ
_TEXT	SEGMENT PARA USE32 PUBLIC 'CODE'
_TEXT	ENDS
;	COMDAT ?Load@?$TLazyArray@UFMeshVertConnect@@@@UAEXXZ
_TEXT	SEGMENT PARA USE32 PUBLIC 'CODE'
_TEXT	ENDS
;	COMDAT ?Unload@?$TLazyArray@UFMeshVertConnect@@@@UAEXXZ
_TEXT	SEGMENT PARA USE32 PUBLIC 'CODE'
_TEXT	ENDS
;	COMDAT ??1?$TLazyArray@H@@QAE@XZ
_TEXT	SEGMENT PARA USE32 PUBLIC 'CODE'
_TEXT	ENDS
;	COMDAT ?Load@?$TLazyArray@H@@UAEXXZ
_TEXT	SEGMENT PARA USE32 PUBLIC 'CODE'
_TEXT	ENDS
;	COMDAT ?Unload@?$TLazyArray@H@@UAEXXZ
_TEXT	SEGMENT PARA USE32 PUBLIC 'CODE'
_TEXT	ENDS
;	COMDAT ??1?$TArray@PAVUTexture@@@@QAE@XZ
_TEXT	SEGMENT PARA USE32 PUBLIC 'CODE'
_TEXT	ENDS
;	COMDAT ??0?$TArray@UFMeshFace@@@@QAE@XZ
_TEXT	SEGMENT PARA USE32 PUBLIC 'CODE'
_TEXT	ENDS
;	COMDAT ??1?$TArray@UFMeshFace@@@@QAE@XZ
_TEXT	SEGMENT PARA USE32 PUBLIC 'CODE'
_TEXT	ENDS
;	COMDAT ??0?$TArray@UFMeshWedge@@@@QAE@XZ
_TEXT	SEGMENT PARA USE32 PUBLIC 'CODE'
_TEXT	ENDS
;	COMDAT ??1?$TArray@UFMeshWedge@@@@QAE@XZ
_TEXT	SEGMENT PARA USE32 PUBLIC 'CODE'
_TEXT	ENDS
;	COMDAT ??0?$TArray@UFMeshMaterial@@@@QAE@XZ
_TEXT	SEGMENT PARA USE32 PUBLIC 'CODE'
_TEXT	ENDS
;	COMDAT ??1?$TArray@UFMeshMaterial@@@@QAE@XZ
_TEXT	SEGMENT PARA USE32 PUBLIC 'CODE'
_TEXT	ENDS
;	COMDAT ??1?$TMapBase@VFName@@V1@@@QAE@XZ
_TEXT	SEGMENT PARA USE32 PUBLIC 'CODE'
_TEXT	ENDS
;	COMDAT ??0?$TArray@U_D3DADAPTER_IDENTIFIER8@@@@QAE@XZ
_TEXT	SEGMENT PARA USE32 PUBLIC 'CODE'
_TEXT	ENDS
;	COMDAT ??1?$TArray@U_D3DADAPTER_IDENTIFIER8@@@@QAE@XZ
_TEXT	SEGMENT PARA USE32 PUBLIC 'CODE'
_TEXT	ENDS
;	COMDAT ??R?$TArray@U_D3DADAPTER_IDENTIFIER8@@@@QAEAAU_D3DADAPTER_IDENTIFIER8@@H@Z
_TEXT	SEGMENT PARA USE32 PUBLIC 'CODE'
_TEXT	ENDS
;	COMDAT ?Empty@?$TArray@U_D3DADAPTER_IDENTIFIER8@@@@QAEXH@Z
_TEXT	SEGMENT PARA USE32 PUBLIC 'CODE'
_TEXT	ENDS
;	COMDAT ?AddItem@?$TArray@U_D3DADAPTER_IDENTIFIER8@@@@QAEHABU_D3DADAPTER_IDENTIFIER8@@@Z
_TEXT	SEGMENT PARA USE32 PUBLIC 'CODE'
_TEXT	ENDS
;	COMDAT ??0?$TArray@U_D3DDISPLAYMODE@@@@QAE@XZ
_TEXT	SEGMENT PARA USE32 PUBLIC 'CODE'
_TEXT	ENDS
;	COMDAT ??1?$TArray@U_D3DDISPLAYMODE@@@@QAE@XZ
_TEXT	SEGMENT PARA USE32 PUBLIC 'CODE'
_TEXT	ENDS
;	COMDAT ??R?$TArray@U_D3DDISPLAYMODE@@@@QAEAAU_D3DDISPLAYMODE@@H@Z
_TEXT	SEGMENT PARA USE32 PUBLIC 'CODE'
_TEXT	ENDS
;	COMDAT ?Empty@?$TArray@U_D3DDISPLAYMODE@@@@QAEXH@Z
_TEXT	SEGMENT PARA USE32 PUBLIC 'CODE'
_TEXT	ENDS
;	COMDAT ?AddItem@?$TArray@U_D3DDISPLAYMODE@@@@QAEHABU_D3DDISPLAYMODE@@@Z
_TEXT	SEGMENT PARA USE32 PUBLIC 'CODE'
_TEXT	ENDS
;	COMDAT ??0TIterator@?$TArray@U_D3DDISPLAYMODE@@@@QAE@AAV1@@Z
_TEXT	SEGMENT PARA USE32 PUBLIC 'CODE'
_TEXT	ENDS
;	COMDAT ??ETIterator@?$TArray@U_D3DDISPLAYMODE@@@@QAEXXZ
_TEXT	SEGMENT PARA USE32 PUBLIC 'CODE'
_TEXT	ENDS
;	COMDAT ??BTIterator@?$TArray@U_D3DDISPLAYMODE@@@@QBEHXZ
_TEXT	SEGMENT PARA USE32 PUBLIC 'CODE'
_TEXT	ENDS
;	COMDAT ??CTIterator@?$TArray@U_D3DDISPLAYMODE@@@@QBEPAU_D3DDISPLAYMODE@@XZ
_TEXT	SEGMENT PARA USE32 PUBLIC 'CODE'
_TEXT	ENDS
;	COMDAT ??0?$TArray@UProjectorInfo@UD3DRenderDevice@@@@QAE@XZ
_TEXT	SEGMENT PARA USE32 PUBLIC 'CODE'
_TEXT	ENDS
;	COMDAT ??0?$TArray@UProjectorInfo@UD3DRenderDevice@@@@QAE@ABV0@@Z
_TEXT	SEGMENT PARA USE32 PUBLIC 'CODE'
_TEXT	ENDS
;	COMDAT ??1?$TArray@UProjectorInfo@UD3DRenderDevice@@@@QAE@XZ
_TEXT	SEGMENT PARA USE32 PUBLIC 'CODE'
_TEXT	ENDS
;	COMDAT ??R?$TArray@UProjectorInfo@UD3DRenderDevice@@@@QAEAAUProjectorInfo@UD3DRenderDevice@@H@Z
_TEXT	SEGMENT PARA USE32 PUBLIC 'CODE'
_TEXT	ENDS
;	COMDAT ??4?$TArray@UProjectorInfo@UD3DRenderDevice@@@@QAEAAV0@ABV0@@Z
_TEXT	SEGMENT PARA USE32 PUBLIC 'CODE'
_TEXT	ENDS
;	COMDAT ?AddItem@?$TArray@UProjectorInfo@UD3DRenderDevice@@@@QAEHABUProjectorInfo@UD3DRenderDevice@@@Z
_TEXT	SEGMENT PARA USE32 PUBLIC 'CODE'
_TEXT	ENDS
;	COMDAT ??0?$TArray@URenderTargetInfo@UD3DRenderDevice@@@@QAE@XZ
_TEXT	SEGMENT PARA USE32 PUBLIC 'CODE'
_TEXT	ENDS
;	COMDAT ??0?$TArray@URenderTargetInfo@UD3DRenderDevice@@@@QAE@ABV0@@Z
_TEXT	SEGMENT PARA USE32 PUBLIC 'CODE'
_TEXT	ENDS
;	COMDAT ??1?$TArray@URenderTargetInfo@UD3DRenderDevice@@@@QAE@XZ
_TEXT	SEGMENT PARA USE32 PUBLIC 'CODE'
_TEXT	ENDS
;	COMDAT ??R?$TArray@URenderTargetInfo@UD3DRenderDevice@@@@QAEAAURenderTargetInfo@UD3DRenderDevice@@H@Z
_TEXT	SEGMENT PARA USE32 PUBLIC 'CODE'
_TEXT	ENDS
;	COMDAT ??4?$TArray@URenderTargetInfo@UD3DRenderDevice@@@@QAEAAV0@ABV0@@Z
_TEXT	SEGMENT PARA USE32 PUBLIC 'CODE'
_TEXT	ENDS
;	COMDAT ?AddItem@?$TArray@URenderTargetInfo@UD3DRenderDevice@@@@QAEHABURenderTargetInfo@UD3DRenderDevice@@@Z
_TEXT	SEGMENT PARA USE32 PUBLIC 'CODE'
_TEXT	ENDS
;	COMDAT ??0?$FD3DVertexBuffer@UFD3DScreenVertex@@@@QAE@XZ
_TEXT	SEGMENT PARA USE32 PUBLIC 'CODE'
_TEXT	ENDS
;	COMDAT ??1?$FD3DVertexBuffer@UFD3DScreenVertex@@@@QAE@XZ
_TEXT	SEGMENT PARA USE32 PUBLIC 'CODE'
_TEXT	ENDS
;	COMDAT ?Init@?$FD3DVertexBuffer@UFD3DScreenVertex@@@@QAEXPAUIDirect3DDevice8@@H@Z
_TEXT	SEGMENT PARA USE32 PUBLIC 'CODE'
_TEXT	ENDS
;	COMDAT ?Exit@?$FD3DVertexBuffer@UFD3DScreenVertex@@@@QAEXXZ
_TEXT	SEGMENT PARA USE32 PUBLIC 'CODE'
_TEXT	ENDS
;	COMDAT ?Lock@?$FD3DVertexBuffer@UFD3DScreenVertex@@@@QAEPAUFD3DScreenVertex@@HH@Z
_TEXT	SEGMENT PARA USE32 PUBLIC 'CODE'
_TEXT	ENDS
;	COMDAT ?Unlock@?$FD3DVertexBuffer@UFD3DScreenVertex@@@@QAEHXZ
_TEXT	SEGMENT PARA USE32 PUBLIC 'CODE'
_TEXT	ENDS
;	COMDAT ?Set@?$FD3DVertexBuffer@UFD3DScreenVertex@@@@QAEXXZ
_TEXT	SEGMENT PARA USE32 PUBLIC 'CODE'
_TEXT	ENDS
;	COMDAT ??0?$FD3DVertexBuffer@UFD3DTLVertex@@@@QAE@XZ
_TEXT	SEGMENT PARA USE32 PUBLIC 'CODE'
_TEXT	ENDS
;	COMDAT ??1?$FD3DVertexBuffer@UFD3DTLVertex@@@@QAE@XZ
_TEXT	SEGMENT PARA USE32 PUBLIC 'CODE'
_TEXT	ENDS
;	COMDAT ?Init@?$FD3DVertexBuffer@UFD3DTLVertex@@@@QAEXPAUIDirect3DDevice8@@H@Z
_TEXT	SEGMENT PARA USE32 PUBLIC 'CODE'
_TEXT	ENDS
;	COMDAT ?Exit@?$FD3DVertexBuffer@UFD3DTLVertex@@@@QAEXXZ
_TEXT	SEGMENT PARA USE32 PUBLIC 'CODE'
_TEXT	ENDS
;	COMDAT ?Lock@?$FD3DVertexBuffer@UFD3DTLVertex@@@@QAEPAUFD3DTLVertex@@HH@Z
_TEXT	SEGMENT PARA USE32 PUBLIC 'CODE'
_TEXT	ENDS
;	COMDAT ?Unlock@?$FD3DVertexBuffer@UFD3DTLVertex@@@@QAEHXZ
_TEXT	SEGMENT PARA USE32 PUBLIC 'CODE'
_TEXT	ENDS
;	COMDAT ?Set@?$FD3DVertexBuffer@UFD3DTLVertex@@@@QAEXXZ
_TEXT	SEGMENT PARA USE32 PUBLIC 'CODE'
_TEXT	ENDS
;	COMDAT ??0?$FD3DVertexBuffer@UFD3DVertex@@@@QAE@XZ
_TEXT	SEGMENT PARA USE32 PUBLIC 'CODE'
_TEXT	ENDS
;	COMDAT ??1?$FD3DVertexBuffer@UFD3DVertex@@@@QAE@XZ
_TEXT	SEGMENT PARA USE32 PUBLIC 'CODE'
_TEXT	ENDS
;	COMDAT ?Init@?$FD3DVertexBuffer@UFD3DVertex@@@@QAEXPAUIDirect3DDevice8@@H@Z
_TEXT	SEGMENT PARA USE32 PUBLIC 'CODE'
_TEXT	ENDS
;	COMDAT ?Exit@?$FD3DVertexBuffer@UFD3DVertex@@@@QAEXXZ
_TEXT	SEGMENT PARA USE32 PUBLIC 'CODE'
_TEXT	ENDS
;	COMDAT ?Lock@?$FD3DVertexBuffer@UFD3DVertex@@@@QAEPAUFD3DVertex@@HH@Z
_TEXT	SEGMENT PARA USE32 PUBLIC 'CODE'
_TEXT	ENDS
;	COMDAT ?Unlock@?$FD3DVertexBuffer@UFD3DVertex@@@@QAEHXZ
_TEXT	SEGMENT PARA USE32 PUBLIC 'CODE'
_TEXT	ENDS
;	COMDAT ?Set@?$FD3DVertexBuffer@UFD3DVertex@@@@QAEXXZ
_TEXT	SEGMENT PARA USE32 PUBLIC 'CODE'
_TEXT	ENDS
;	COMDAT ??0?$FD3DVertexBuffer@UFD3DParticle@@@@QAE@XZ
_TEXT	SEGMENT PARA USE32 PUBLIC 'CODE'
_TEXT	ENDS
;	COMDAT ??1?$FD3DVertexBuffer@UFD3DParticle@@@@QAE@XZ
_TEXT	SEGMENT PARA USE32 PUBLIC 'CODE'
_TEXT	ENDS
;	COMDAT ?Init@?$FD3DVertexBuffer@UFD3DParticle@@@@QAEXPAUIDirect3DDevice8@@H@Z
_TEXT	SEGMENT PARA USE32 PUBLIC 'CODE'
_TEXT	ENDS
;	COMDAT ?Exit@?$FD3DVertexBuffer@UFD3DParticle@@@@QAEXXZ
_TEXT	SEGMENT PARA USE32 PUBLIC 'CODE'
_TEXT	ENDS
;	COMDAT ?Lock@?$FD3DVertexBuffer@UFD3DParticle@@@@QAEPAUFD3DParticle@@HH@Z
_TEXT	SEGMENT PARA USE32 PUBLIC 'CODE'
_TEXT	ENDS
;	COMDAT ?Unlock@?$FD3DVertexBuffer@UFD3DParticle@@@@QAEHXZ
_TEXT	SEGMENT PARA USE32 PUBLIC 'CODE'
_TEXT	ENDS
;	COMDAT ?Set@?$FD3DVertexBuffer@UFD3DParticle@@@@QAEXXZ
_TEXT	SEGMENT PARA USE32 PUBLIC 'CODE'
_TEXT	ENDS
;	COMDAT ??0?$TArray@UQueuedPolygon@UD3DRenderDevice@@@@QAE@XZ
_TEXT	SEGMENT PARA USE32 PUBLIC 'CODE'
_TEXT	ENDS
;	COMDAT ??0?$TArray@UQueuedPolygon@UD3DRenderDevice@@@@QAE@ABV0@@Z
_TEXT	SEGMENT PARA USE32 PUBLIC 'CODE'
_TEXT	ENDS
;	COMDAT ??1?$TArray@UQueuedPolygon@UD3DRenderDevice@@@@QAE@XZ
_TEXT	SEGMENT PARA USE32 PUBLIC 'CODE'
_TEXT	ENDS
;	COMDAT ??R?$TArray@UQueuedPolygon@UD3DRenderDevice@@@@QAEAAUQueuedPolygon@UD3DRenderDevice@@H@Z
_TEXT	SEGMENT PARA USE32 PUBLIC 'CODE'
_TEXT	ENDS
;	COMDAT ?Add@?$TArray@UQueuedPolygon@UD3DRenderDevice@@@@QAEHHH@Z
_TEXT	SEGMENT PARA USE32 PUBLIC 'CODE'
_TEXT	ENDS
;	COMDAT ??4?$TArray@UQueuedPolygon@UD3DRenderDevice@@@@QAEAAV0@ABV0@@Z
_TEXT	SEGMENT PARA USE32 PUBLIC 'CODE'
_TEXT	ENDS
;	COMDAT ??0?$TArray@UQueuedParticleByTexture@UD3DRenderDevice@@@@QAE@XZ
_TEXT	SEGMENT PARA USE32 PUBLIC 'CODE'
_TEXT	ENDS
;	COMDAT ??0?$TArray@UQueuedParticleByTexture@UD3DRenderDevice@@@@QAE@ABV0@@Z
_TEXT	SEGMENT PARA USE32 PUBLIC 'CODE'
_TEXT	ENDS
;	COMDAT ??1?$TArray@UQueuedParticleByTexture@UD3DRenderDevice@@@@QAE@XZ
_TEXT	SEGMENT PARA USE32 PUBLIC 'CODE'
_TEXT	ENDS
;	COMDAT ??R?$TArray@UQueuedParticleByTexture@UD3DRenderDevice@@@@QAEAAUQueuedParticleByTexture@UD3DRenderDevice@@H@Z
_TEXT	SEGMENT PARA USE32 PUBLIC 'CODE'
_TEXT	ENDS
;	COMDAT ??4?$TArray@UQueuedParticleByTexture@UD3DRenderDevice@@@@QAEAAV0@ABV0@@Z
_TEXT	SEGMENT PARA USE32 PUBLIC 'CODE'
_TEXT	ENDS
;	COMDAT ?AddZeroed@?$TArray@UQueuedParticleByTexture@UD3DRenderDevice@@@@QAEHH@Z
_TEXT	SEGMENT PARA USE32 PUBLIC 'CODE'
_TEXT	ENDS
;	COMDAT ??0?$TArray@UQueuedLineSegment@UD3DRenderDevice@@@@QAE@XZ
_TEXT	SEGMENT PARA USE32 PUBLIC 'CODE'
_TEXT	ENDS
;	COMDAT ??0?$TArray@UQueuedLineSegment@UD3DRenderDevice@@@@QAE@ABV0@@Z
_TEXT	SEGMENT PARA USE32 PUBLIC 'CODE'
_TEXT	ENDS
;	COMDAT ??1?$TArray@UQueuedLineSegment@UD3DRenderDevice@@@@QAE@XZ
_TEXT	SEGMENT PARA USE32 PUBLIC 'CODE'
_TEXT	ENDS
;	COMDAT ??R?$TArray@UQueuedLineSegment@UD3DRenderDevice@@@@QAEAAUQueuedLineSegment@UD3DRenderDevice@@H@Z
_TEXT	SEGMENT PARA USE32 PUBLIC 'CODE'
_TEXT	ENDS
;	COMDAT ?Add@?$TArray@UQueuedLineSegment@UD3DRenderDevice@@@@QAEHHH@Z
_TEXT	SEGMENT PARA USE32 PUBLIC 'CODE'
_TEXT	ENDS
;	COMDAT ??4?$TArray@UQueuedLineSegment@UD3DRenderDevice@@@@QAEAAV0@ABV0@@Z
_TEXT	SEGMENT PARA USE32 PUBLIC 'CODE'
_TEXT	ENDS
;	COMDAT ??0?$TArray@UFD3DVertex@@@@QAE@XZ
_TEXT	SEGMENT PARA USE32 PUBLIC 'CODE'
_TEXT	ENDS
;	COMDAT ??0?$TArray@UFD3DVertex@@@@QAE@ABV0@@Z
_TEXT	SEGMENT PARA USE32 PUBLIC 'CODE'
_TEXT	ENDS
;	COMDAT ??1?$TArray@UFD3DVertex@@@@QAE@XZ
_TEXT	SEGMENT PARA USE32 PUBLIC 'CODE'
_TEXT	ENDS
;	COMDAT ??R?$TArray@UFD3DVertex@@@@QAEAAUFD3DVertex@@H@Z
_TEXT	SEGMENT PARA USE32 PUBLIC 'CODE'
_TEXT	ENDS
;	COMDAT ?Add@?$TArray@UFD3DVertex@@@@QAEHHH@Z
_TEXT	SEGMENT PARA USE32 PUBLIC 'CODE'
_TEXT	ENDS
;	COMDAT ??4?$TArray@UFD3DVertex@@@@QAEAAV0@ABV0@@Z
_TEXT	SEGMENT PARA USE32 PUBLIC 'CODE'
_TEXT	ENDS
;	COMDAT ??0QueuedPolygon@UD3DRenderDevice@@QAE@ABU01@@Z
_TEXT	SEGMENT PARA USE32 PUBLIC 'CODE'
_TEXT	ENDS
;	COMDAT ??0QueuedPolygon@UD3DRenderDevice@@QAE@XZ
_TEXT	SEGMENT PARA USE32 PUBLIC 'CODE'
_TEXT	ENDS
;	COMDAT ??0QueuedLineSegment@UD3DRenderDevice@@QAE@XZ
_TEXT	SEGMENT PARA USE32 PUBLIC 'CODE'
_TEXT	ENDS
;	COMDAT ??0FD3DVertex@@QAE@XZ
_TEXT	SEGMENT PARA USE32 PUBLIC 'CODE'
_TEXT	ENDS
;	COMDAT ?Remove@?$TArray@G@@QAEXHH@Z
_TEXT	SEGMENT PARA USE32 PUBLIC 'CODE'
_TEXT	ENDS
;	COMDAT ??0?$TArray@E@@QAE@H@Z
_TEXT	SEGMENT PARA USE32 PUBLIC 'CODE'
_TEXT	ENDS
;	COMDAT ?CountBytes@?$TArray@E@@QAEXAAVFArchive@@@Z
_TEXT	SEGMENT PARA USE32 PUBLIC 'CODE'
_TEXT	ENDS
;	COMDAT ?Empty@?$TArray@E@@QAEXH@Z
_TEXT	SEGMENT PARA USE32 PUBLIC 'CODE'
_TEXT	ENDS
;	COMDAT ??R?$TArray@H@@QBEABHH@Z
_TEXT	SEGMENT PARA USE32 PUBLIC 'CODE'
_TEXT	ENDS
;	COMDAT ??6@YAAAVFArchive@@AAV0@AAV?$TArray@H@@@Z
_TEXT	SEGMENT PARA USE32 PUBLIC 'CODE'
_TEXT	ENDS
;	COMDAT ?Add@?$TArray@H@@QAEHHH@Z
_TEXT	SEGMENT PARA USE32 PUBLIC 'CODE'
_TEXT	ENDS
;	COMDAT ?Empty@?$TArray@H@@QAEXH@Z
_TEXT	SEGMENT PARA USE32 PUBLIC 'CODE'
_TEXT	ENDS
;	COMDAT ?Remove@?$TArray@VFString@@@@QAEXHH@Z
_TEXT	SEGMENT PARA USE32 PUBLIC 'CODE'
_TEXT	ENDS
;	COMDAT ??R?$TArray@VTPair@?$TMapBase@PAVUObject@@PAVFFieldNetCache@@@@@@QAEAAVTPair@?$TMapBase@PAVUObject@@PAVFFieldNetCache@@@@H@Z
_TEXT	SEGMENT PARA USE32 PUBLIC 'CODE'
_TEXT	ENDS
;	COMDAT ?Remove@?$TArray@VFPackageInfo@@@@QAEXHH@Z
_TEXT	SEGMENT PARA USE32 PUBLIC 'CODE'
_TEXT	ENDS
;	COMDAT ?Rehash@?$TMapBase@PAVUObject@@H@@IAEXXZ
_TEXT	SEGMENT PARA USE32 PUBLIC 'CODE'
_TEXT	ENDS
;	COMDAT ??0?$TArray@VTPair@?$TMapBase@PAVUObject@@H@@@@QAE@XZ
_TEXT	SEGMENT PARA USE32 PUBLIC 'CODE'
_TEXT	ENDS
;	COMDAT ??1?$TArray@VTPair@?$TMapBase@PAVUObject@@H@@@@QAE@XZ
_TEXT	SEGMENT PARA USE32 PUBLIC 'CODE'
_TEXT	ENDS
;	COMDAT ?Rehash@?$TMapBase@PAVUObject@@PAVFClassNetCache@@@@IAEXXZ
_TEXT	SEGMENT PARA USE32 PUBLIC 'CODE'
_TEXT	ENDS
;	COMDAT ??0?$TArray@VTPair@?$TMapBase@PAVUObject@@PAVFClassNetCache@@@@@@QAE@XZ
_TEXT	SEGMENT PARA USE32 PUBLIC 'CODE'
_TEXT	ENDS
;	COMDAT ??1?$TArray@VTPair@?$TMapBase@PAVUObject@@PAVFClassNetCache@@@@@@QAE@XZ
_TEXT	SEGMENT PARA USE32 PUBLIC 'CODE'
_TEXT	ENDS
;	COMDAT ?Remove@?$TArray@VFName@@@@QAEXHH@Z
_TEXT	SEGMENT PARA USE32 PUBLIC 'CODE'
_TEXT	ENDS
;	COMDAT ?Remove@?$TArray@UFRepRecord@@@@QAEXHH@Z
_TEXT	SEGMENT PARA USE32 PUBLIC 'CODE'
_TEXT	ENDS
;	COMDAT ?Remove@?$TArray@PAVUField@@@@QAEXHH@Z
_TEXT	SEGMENT PARA USE32 PUBLIC 'CODE'
_TEXT	ENDS
;	COMDAT ?Remove@?$TArray@VFClassDependency@@@@QAEXHH@Z
_TEXT	SEGMENT PARA USE32 PUBLIC 'CODE'
_TEXT	ENDS
;	COMDAT ?IterateToNext@?$TFieldIterator@VUProperty@@@@IAEXXZ
_TEXT	SEGMENT PARA USE32 PUBLIC 'CODE'
_TEXT	ENDS
;	COMDAT ??R?$TArray@UFGenerationInfo@@@@QBEABUFGenerationInfo@@H@Z
_TEXT	SEGMENT PARA USE32 PUBLIC 'CODE'
_TEXT	ENDS
;	COMDAT ?Remove@?$TArray@UFGenerationInfo@@@@QAEXHH@Z
_TEXT	SEGMENT PARA USE32 PUBLIC 'CODE'
_TEXT	ENDS
;	COMDAT ?Remove@?$TArray@UFObjectImport@@@@QAEXHH@Z
_TEXT	SEGMENT PARA USE32 PUBLIC 'CODE'
_TEXT	ENDS
;	COMDAT ?Remove@?$TArray@UFObjectExport@@@@QAEXHH@Z
_TEXT	SEGMENT PARA USE32 PUBLIC 'CODE'
_TEXT	ENDS
;	COMDAT ?Remove@?$TArray@PAVFLazyLoader@@@@QAEXHH@Z
_TEXT	SEGMENT PARA USE32 PUBLIC 'CODE'
_TEXT	ENDS
;	COMDAT ?Add@?$TTransArray@VFPoly@@@@QAEHHH@Z
_TEXT	SEGMENT PARA USE32 PUBLIC 'CODE'
_TEXT	ENDS
;	COMDAT ?SerializeItem@?$TTransArray@VFPoly@@@@KAXAAVFArchive@@PAX@Z
_TEXT	SEGMENT PARA USE32 PUBLIC 'CODE'
_TEXT	ENDS
;	COMDAT ?DestructItem@?$TTransArray@VFPoly@@@@KAXPAX@Z
_TEXT	SEGMENT PARA USE32 PUBLIC 'CODE'
_TEXT	ENDS
;	COMDAT ??0?$TArray@VFPoly@@@@QAE@H@Z
_TEXT	SEGMENT PARA USE32 PUBLIC 'CODE'
_TEXT	ENDS
;	COMDAT ??6@YAAAVFArchive@@AAV0@AAV?$TArray@VFPoly@@@@@Z
_TEXT	SEGMENT PARA USE32 PUBLIC 'CODE'
_TEXT	ENDS
;	COMDAT ?Remove@?$TArray@VFPoly@@@@QAEXHH@Z
_TEXT	SEGMENT PARA USE32 PUBLIC 'CODE'
_TEXT	ENDS
;	COMDAT ?Empty@?$TArray@VFPoly@@@@QAEXH@Z
_TEXT	SEGMENT PARA USE32 PUBLIC 'CODE'
_TEXT	ENDS
;	COMDAT ??0?$TArray@VFBspNode@@@@QAE@H@Z
_TEXT	SEGMENT PARA USE32 PUBLIC 'CODE'
_TEXT	ENDS
;	COMDAT ?Remove@?$TArray@VFBspNode@@@@QAEXHH@Z
_TEXT	SEGMENT PARA USE32 PUBLIC 'CODE'
_TEXT	ENDS
;	COMDAT ??0?$TArray@VFVert@@@@QAE@H@Z
_TEXT	SEGMENT PARA USE32 PUBLIC 'CODE'
_TEXT	ENDS
;	COMDAT ?Remove@?$TArray@VFVert@@@@QAEXHH@Z
_TEXT	SEGMENT PARA USE32 PUBLIC 'CODE'
_TEXT	ENDS
;	COMDAT ??0?$TArray@VFVector@@@@QAE@H@Z
_TEXT	SEGMENT PARA USE32 PUBLIC 'CODE'
_TEXT	ENDS
;	COMDAT ?Remove@?$TArray@VFVector@@@@QAEXHH@Z
_TEXT	SEGMENT PARA USE32 PUBLIC 'CODE'
_TEXT	ENDS
;	COMDAT ?AddItem@?$TArray@VFVector@@@@QAEHABVFVector@@@Z
_TEXT	SEGMENT PARA USE32 PUBLIC 'CODE'
_TEXT	ENDS
;	COMDAT ??0?$TArray@VFBspSurf@@@@QAE@H@Z
_TEXT	SEGMENT PARA USE32 PUBLIC 'CODE'
_TEXT	ENDS
;	COMDAT ?Remove@?$TArray@VFBspSurf@@@@QAEXHH@Z
_TEXT	SEGMENT PARA USE32 PUBLIC 'CODE'
_TEXT	ENDS
;	COMDAT ?Remove@?$TArray@VFLightMapIndex@@@@QAEXHH@Z
_TEXT	SEGMENT PARA USE32 PUBLIC 'CODE'
_TEXT	ENDS
;	COMDAT ?Remove@?$TArray@VFBox@@@@QAEXHH@Z
_TEXT	SEGMENT PARA USE32 PUBLIC 'CODE'
_TEXT	ENDS
;	COMDAT ?Remove@?$TArray@VFLeaf@@@@QAEXHH@Z
_TEXT	SEGMENT PARA USE32 PUBLIC 'CODE'
_TEXT	ENDS
;	COMDAT ??0?$TArray@PAVAActor@@@@QAE@H@Z
_TEXT	SEGMENT PARA USE32 PUBLIC 'CODE'
_TEXT	ENDS
;	COMDAT ?Remove@?$TArray@PAVAActor@@@@QAEXHH@Z
_TEXT	SEGMENT PARA USE32 PUBLIC 'CODE'
_TEXT	ENDS
;	COMDAT ?Remove@?$TArray@VFColor@@@@QAEXHH@Z
_TEXT	SEGMENT PARA USE32 PUBLIC 'CODE'
_TEXT	ENDS
;	COMDAT ?Remove@?$TArray@UFMipmap@@@@QAEXHH@Z
_TEXT	SEGMENT PARA USE32 PUBLIC 'CODE'
_TEXT	ENDS
;	COMDAT ??R?$TArray@UFFontCharacter@@@@QAEAAUFFontCharacter@@H@Z
_TEXT	SEGMENT PARA USE32 PUBLIC 'CODE'
_TEXT	ENDS
;	COMDAT ?CountBytes@?$TArray@UFFontCharacter@@@@QAEXAAVFArchive@@@Z
_TEXT	SEGMENT PARA USE32 PUBLIC 'CODE'
_TEXT	ENDS
;	COMDAT ?Empty@?$TArray@UFFontCharacter@@@@QAEXH@Z
_TEXT	SEGMENT PARA USE32 PUBLIC 'CODE'
_TEXT	ENDS
;	COMDAT ?Remove@?$TArray@UFFontPage@@@@QAEXHH@Z
_TEXT	SEGMENT PARA USE32 PUBLIC 'CODE'
_TEXT	ENDS
;	COMDAT ??1?$TArray@VTPair@?$TMapBase@GH@@@@QAE@XZ
_TEXT	SEGMENT PARA USE32 PUBLIC 'CODE'
_TEXT	ENDS
;	COMDAT ?Remove@?$TArray@M@@QAEXHH@Z
_TEXT	SEGMENT PARA USE32 PUBLIC 'CODE'
_TEXT	ENDS
;	COMDAT ?Remove@?$TArray@UFMeshDecalTri@@@@QAEXHH@Z
_TEXT	SEGMENT PARA USE32 PUBLIC 'CODE'
_TEXT	ENDS
;	COMDAT ?Remove@?$TArray@PAVAParticleCollisionActor@@@@QAEXHH@Z
_TEXT	SEGMENT PARA USE32 PUBLIC 'CODE'
_TEXT	ENDS
;	COMDAT ?Remove@?$TArray@VFReachSpec@@@@QAEXHH@Z
_TEXT	SEGMENT PARA USE32 PUBLIC 'CODE'
_TEXT	ENDS
;	COMDAT ?Rehash@?$TMapBase@VFString@@V1@@@IAEXXZ
_TEXT	SEGMENT PARA USE32 PUBLIC 'CODE'
_TEXT	ENDS
;	COMDAT ??0?$TArray@VTPair@?$TMapBase@VFString@@V1@@@@@QAE@XZ
_TEXT	SEGMENT PARA USE32 PUBLIC 'CODE'
_TEXT	ENDS
;	COMDAT ??1?$TArray@VTPair@?$TMapBase@VFString@@V1@@@@@QAE@XZ
_TEXT	SEGMENT PARA USE32 PUBLIC 'CODE'
_TEXT	ENDS
;	COMDAT ?Rehash@?$TMapBase@VFName@@PAVAActor@@@@IAEXXZ
_TEXT	SEGMENT PARA USE32 PUBLIC 'CODE'
_TEXT	ENDS
;	COMDAT ??0?$TArray@VTPair@?$TMapBase@VFName@@PAVAActor@@@@@@QAE@XZ
_TEXT	SEGMENT PARA USE32 PUBLIC 'CODE'
_TEXT	ENDS
;	COMDAT ??1?$TArray@VTPair@?$TMapBase@VFName@@PAVAActor@@@@@@QAE@XZ
_TEXT	SEGMENT PARA USE32 PUBLIC 'CODE'
_TEXT	ENDS
;	COMDAT ?Rehash@?$TMapBase@VFString@@PAVUFont@@@@IAEXXZ
_TEXT	SEGMENT PARA USE32 PUBLIC 'CODE'
_TEXT	ENDS
;	COMDAT ??0?$TArray@VTPair@?$TMapBase@VFString@@PAVUFont@@@@@@QAE@XZ
_TEXT	SEGMENT PARA USE32 PUBLIC 'CODE'
_TEXT	ENDS
;	COMDAT ??1?$TArray@VTPair@?$TMapBase@VFString@@PAVUFont@@@@@@QAE@XZ
_TEXT	SEGMENT PARA USE32 PUBLIC 'CODE'
_TEXT	ENDS
;	COMDAT ?Remove@?$TArray@PAVUViewport@@@@QAEXHH@Z
_TEXT	SEGMENT PARA USE32 PUBLIC 'CODE'
_TEXT	ENDS
;	COMDAT ??R?$TArray@VFMeshAnimNotify@@@@QAEAAVFMeshAnimNotify@@H@Z
_TEXT	SEGMENT PARA USE32 PUBLIC 'CODE'
_TEXT	ENDS
;	COMDAT ?CountBytes@?$TArray@VFMeshAnimNotify@@@@QAEXAAVFArchive@@@Z
_TEXT	SEGMENT PARA USE32 PUBLIC 'CODE'
_TEXT	ENDS
;	COMDAT ?Remove@?$TArray@VFMeshAnimNotify@@@@QAEXHH@Z
_TEXT	SEGMENT PARA USE32 PUBLIC 'CODE'
_TEXT	ENDS
;	COMDAT ?Empty@?$TArray@VFMeshAnimNotify@@@@QAEXH@Z
_TEXT	SEGMENT PARA USE32 PUBLIC 'CODE'
_TEXT	ENDS
;	COMDAT ??1?$TArray@UFMeshVert@@@@QAE@XZ
_TEXT	SEGMENT PARA USE32 PUBLIC 'CODE'
_TEXT	ENDS
;	COMDAT ??6@YAAAVFArchive@@AAV0@AAV?$TArray@UFMeshVert@@@@@Z
_TEXT	SEGMENT PARA USE32 PUBLIC 'CODE'
_TEXT	ENDS
;	COMDAT ?Empty@?$TArray@UFMeshVert@@@@QAEXH@Z
_TEXT	SEGMENT PARA USE32 PUBLIC 'CODE'
_TEXT	ENDS
;	COMDAT ??1?$TArray@UFMeshTri@@@@QAE@XZ
_TEXT	SEGMENT PARA USE32 PUBLIC 'CODE'
_TEXT	ENDS
;	COMDAT ??6@YAAAVFArchive@@AAV0@AAV?$TArray@UFMeshTri@@@@@Z
_TEXT	SEGMENT PARA USE32 PUBLIC 'CODE'
_TEXT	ENDS
;	COMDAT ?Empty@?$TArray@UFMeshTri@@@@QAEXH@Z
_TEXT	SEGMENT PARA USE32 PUBLIC 'CODE'
_TEXT	ENDS
;	COMDAT ?Remove@?$TArray@VFMeshAnimSeq@@@@QAEXHH@Z
_TEXT	SEGMENT PARA USE32 PUBLIC 'CODE'
_TEXT	ENDS
;	COMDAT ??1?$TArray@UFMeshVertConnect@@@@QAE@XZ
_TEXT	SEGMENT PARA USE32 PUBLIC 'CODE'
_TEXT	ENDS
;	COMDAT ??6@YAAAVFArchive@@AAV0@AAV?$TArray@UFMeshVertConnect@@@@@Z
_TEXT	SEGMENT PARA USE32 PUBLIC 'CODE'
_TEXT	ENDS
;	COMDAT ?Empty@?$TArray@UFMeshVertConnect@@@@QAEXH@Z
_TEXT	SEGMENT PARA USE32 PUBLIC 'CODE'
_TEXT	ENDS
;	COMDAT ?Remove@?$TArray@PAVUTexture@@@@QAEXHH@Z
_TEXT	SEGMENT PARA USE32 PUBLIC 'CODE'
_TEXT	ENDS
;	COMDAT ?Remove@?$TArray@UFMeshFace@@@@QAEXHH@Z
_TEXT	SEGMENT PARA USE32 PUBLIC 'CODE'
_TEXT	ENDS
;	COMDAT ?Remove@?$TArray@UFMeshWedge@@@@QAEXHH@Z
_TEXT	SEGMENT PARA USE32 PUBLIC 'CODE'
_TEXT	ENDS
;	COMDAT ?Remove@?$TArray@UFMeshMaterial@@@@QAEXHH@Z
_TEXT	SEGMENT PARA USE32 PUBLIC 'CODE'
_TEXT	ENDS
;	COMDAT ??1?$TArray@VTPair@?$TMapBase@VFName@@V1@@@@@QAE@XZ
_TEXT	SEGMENT PARA USE32 PUBLIC 'CODE'
_TEXT	ENDS
;	COMDAT ?Add@?$TArray@U_D3DADAPTER_IDENTIFIER8@@@@QAEHHH@Z
_TEXT	SEGMENT PARA USE32 PUBLIC 'CODE'
_TEXT	ENDS
;	COMDAT ?Remove@?$TArray@U_D3DADAPTER_IDENTIFIER8@@@@QAEXHH@Z
_TEXT	SEGMENT PARA USE32 PUBLIC 'CODE'
_TEXT	ENDS
;	COMDAT ?Add@?$TArray@U_D3DDISPLAYMODE@@@@QAEHHH@Z
_TEXT	SEGMENT PARA USE32 PUBLIC 'CODE'
_TEXT	ENDS
;	COMDAT ?Remove@?$TArray@U_D3DDISPLAYMODE@@@@QAEXHH@Z
_TEXT	SEGMENT PARA USE32 PUBLIC 'CODE'
_TEXT	ENDS
;	COMDAT ??R?$TArray@UProjectorInfo@UD3DRenderDevice@@@@QBEABUProjectorInfo@UD3DRenderDevice@@H@Z
_TEXT	SEGMENT PARA USE32 PUBLIC 'CODE'
_TEXT	ENDS
;	COMDAT ?Add@?$TArray@UProjectorInfo@UD3DRenderDevice@@@@QAEHHH@Z
_TEXT	SEGMENT PARA USE32 PUBLIC 'CODE'
_TEXT	ENDS
;	COMDAT ?Remove@?$TArray@UProjectorInfo@UD3DRenderDevice@@@@QAEXHH@Z
_TEXT	SEGMENT PARA USE32 PUBLIC 'CODE'
_TEXT	ENDS
;	COMDAT ?Empty@?$TArray@UProjectorInfo@UD3DRenderDevice@@@@QAEXH@Z
_TEXT	SEGMENT PARA USE32 PUBLIC 'CODE'
_TEXT	ENDS
;	COMDAT ??R?$TArray@URenderTargetInfo@UD3DRenderDevice@@@@QBEABURenderTargetInfo@UD3DRenderDevice@@H@Z
_TEXT	SEGMENT PARA USE32 PUBLIC 'CODE'
_TEXT	ENDS
;	COMDAT ?Add@?$TArray@URenderTargetInfo@UD3DRenderDevice@@@@QAEHHH@Z
_TEXT	SEGMENT PARA USE32 PUBLIC 'CODE'
_TEXT	ENDS
;	COMDAT ?Remove@?$TArray@URenderTargetInfo@UD3DRenderDevice@@@@QAEXHH@Z
_TEXT	SEGMENT PARA USE32 PUBLIC 'CODE'
_TEXT	ENDS
;	COMDAT ?Empty@?$TArray@URenderTargetInfo@UD3DRenderDevice@@@@QAEXH@Z
_TEXT	SEGMENT PARA USE32 PUBLIC 'CODE'
_TEXT	ENDS
;	COMDAT ??R?$TArray@UQueuedPolygon@UD3DRenderDevice@@@@QBEABUQueuedPolygon@UD3DRenderDevice@@H@Z
_TEXT	SEGMENT PARA USE32 PUBLIC 'CODE'
_TEXT	ENDS
;	COMDAT ?Remove@?$TArray@UQueuedPolygon@UD3DRenderDevice@@@@QAEXHH@Z
_TEXT	SEGMENT PARA USE32 PUBLIC 'CODE'
_TEXT	ENDS
;	COMDAT ?Empty@?$TArray@UQueuedPolygon@UD3DRenderDevice@@@@QAEXH@Z
_TEXT	SEGMENT PARA USE32 PUBLIC 'CODE'
_TEXT	ENDS
;	COMDAT ??R?$TArray@UQueuedParticleByTexture@UD3DRenderDevice@@@@QBEABUQueuedParticleByTexture@UD3DRenderDevice@@H@Z
_TEXT	SEGMENT PARA USE32 PUBLIC 'CODE'
_TEXT	ENDS
;	COMDAT ?Remove@?$TArray@UQueuedParticleByTexture@UD3DRenderDevice@@@@QAEXHH@Z
_TEXT	SEGMENT PARA USE32 PUBLIC 'CODE'
_TEXT	ENDS
;	COMDAT ?Empty@?$TArray@UQueuedParticleByTexture@UD3DRenderDevice@@@@QAEXH@Z
_TEXT	SEGMENT PARA USE32 PUBLIC 'CODE'
_TEXT	ENDS
;	COMDAT ??R?$TArray@UQueuedLineSegment@UD3DRenderDevice@@@@QBEABUQueuedLineSegment@UD3DRenderDevice@@H@Z
_TEXT	SEGMENT PARA USE32 PUBLIC 'CODE'
_TEXT	ENDS
;	COMDAT ?Remove@?$TArray@UQueuedLineSegment@UD3DRenderDevice@@@@QAEXHH@Z
_TEXT	SEGMENT PARA USE32 PUBLIC 'CODE'
_TEXT	ENDS
;	COMDAT ?Empty@?$TArray@UQueuedLineSegment@UD3DRenderDevice@@@@QAEXH@Z
_TEXT	SEGMENT PARA USE32 PUBLIC 'CODE'
_TEXT	ENDS
;	COMDAT ??R?$TArray@UFD3DVertex@@@@QBEABUFD3DVertex@@H@Z
_TEXT	SEGMENT PARA USE32 PUBLIC 'CODE'
_TEXT	ENDS
;	COMDAT ?Remove@?$TArray@UFD3DVertex@@@@QAEXHH@Z
_TEXT	SEGMENT PARA USE32 PUBLIC 'CODE'
_TEXT	ENDS
;	COMDAT ?Empty@?$TArray@UFD3DVertex@@@@QAEXH@Z
_TEXT	SEGMENT PARA USE32 PUBLIC 'CODE'
_TEXT	ENDS
;	COMDAT ?NeedsDestructor@?$TTypeInfoBase@UFGenerationInfo@@@@SAHXZ
_TEXT	SEGMENT PARA USE32 PUBLIC 'CODE'
_TEXT	ENDS
;	COMDAT ?NeedsDestructor@?$TTypeInfoBase@U_D3DADAPTER_IDENTIFIER8@@@@SAHXZ
_TEXT	SEGMENT PARA USE32 PUBLIC 'CODE'
_TEXT	ENDS
;	COMDAT ?NeedsDestructor@?$TTypeInfoBase@U_D3DDISPLAYMODE@@@@SAHXZ
_TEXT	SEGMENT PARA USE32 PUBLIC 'CODE'
_TEXT	ENDS
;	COMDAT ?NeedsDestructor@?$TTypeInfoBase@UProjectorInfo@UD3DRenderDevice@@@@SAHXZ
_TEXT	SEGMENT PARA USE32 PUBLIC 'CODE'
_TEXT	ENDS
;	COMDAT ?NeedsDestructor@?$TTypeInfoBase@URenderTargetInfo@UD3DRenderDevice@@@@SAHXZ
_TEXT	SEGMENT PARA USE32 PUBLIC 'CODE'
_TEXT	ENDS
;	COMDAT ?NeedsDestructor@?$TTypeInfoBase@UQueuedPolygon@UD3DRenderDevice@@@@SAHXZ
_TEXT	SEGMENT PARA USE32 PUBLIC 'CODE'
_TEXT	ENDS
;	COMDAT ?NeedsDestructor@?$TTypeInfoBase@UQueuedParticleByTexture@UD3DRenderDevice@@@@SAHXZ
_TEXT	SEGMENT PARA USE32 PUBLIC 'CODE'
_TEXT	ENDS
;	COMDAT ?NeedsDestructor@?$TTypeInfoBase@UQueuedLineSegment@UD3DRenderDevice@@@@SAHXZ
_TEXT	SEGMENT PARA USE32 PUBLIC 'CODE'
_TEXT	ENDS
;	COMDAT ?NeedsDestructor@?$TTypeInfoBase@UFD3DVertex@@@@SAHXZ
_TEXT	SEGMENT PARA USE32 PUBLIC 'CODE'
_TEXT	ENDS
;	COMDAT ??_GFString@@QAEPAXI@Z
_TEXT	SEGMENT PARA USE32 PUBLIC 'CODE'
_TEXT	ENDS
;	COMDAT ??_GFPackageInfo@@QAEPAXI@Z
_TEXT	SEGMENT PARA USE32 PUBLIC 'CODE'
_TEXT	ENDS
;	COMDAT __imp_??0FPoly@@QAE@XZ
_TEXT	SEGMENT PARA USE32 PUBLIC 'CODE'
_TEXT	ENDS
;	COMDAT ??_GFBspSurf@@QAEPAXI@Z
_TEXT	SEGMENT PARA USE32 PUBLIC 'CODE'
_TEXT	ENDS
;	COMDAT ??_GFMipmap@@QAEPAXI@Z
_TEXT	SEGMENT PARA USE32 PUBLIC 'CODE'
_TEXT	ENDS
;	COMDAT ??_GFFontPage@@QAEPAXI@Z
_TEXT	SEGMENT PARA USE32 PUBLIC 'CODE'
_TEXT	ENDS
;	COMDAT ??_GFMeshAnimSeq@@QAEPAXI@Z
_TEXT	SEGMENT PARA USE32 PUBLIC 'CODE'
_TEXT	ENDS
;	COMDAT __imp_??1FPackageInfo@@QAE@XZ
_TEXT	SEGMENT PARA USE32 PUBLIC 'CODE'
_TEXT	ENDS
;	COMDAT ??1FBspSurf@@QAE@XZ
_TEXT	SEGMENT PARA USE32 PUBLIC 'CODE'
_TEXT	ENDS
;	COMDAT __imp_??1FMipmap@@QAE@XZ
_TEXT	SEGMENT PARA USE32 PUBLIC 'CODE'
_TEXT	ENDS
;	COMDAT __imp_??1FFontPage@@QAE@XZ
_TEXT	SEGMENT PARA USE32 PUBLIC 'CODE'
_TEXT	ENDS
;	COMDAT ??1FMeshAnimSeq@@QAE@XZ
_TEXT	SEGMENT PARA USE32 PUBLIC 'CODE'
_TEXT	ENDS
;	COMDAT ?NeedsDestructor@?$TTypeInfoBase@VFString@@@@SAHXZ
_TEXT	SEGMENT PARA USE32 PUBLIC 'CODE'
_TEXT	ENDS
;	COMDAT ?CountBytes@?$TArray@H@@QAEXAAVFArchive@@@Z
_TEXT	SEGMENT PARA USE32 PUBLIC 'CODE'
_TEXT	ENDS
;	COMDAT ??R?$TArray@VFString@@@@QAEAAVFString@@H@Z
_TEXT	SEGMENT PARA USE32 PUBLIC 'CODE'
_TEXT	ENDS
;	COMDAT ??R?$TArray@VFPackageInfo@@@@QAEAAVFPackageInfo@@H@Z
_TEXT	SEGMENT PARA USE32 PUBLIC 'CODE'
_TEXT	ENDS
;	COMDAT ??R?$TArray@VTPair@?$TMapBase@PAVUObject@@H@@@@QAEAAVTPair@?$TMapBase@PAVUObject@@H@@H@Z
_TEXT	SEGMENT PARA USE32 PUBLIC 'CODE'
_TEXT	ENDS
;	COMDAT ?Remove@?$TArray@VTPair@?$TMapBase@PAVUObject@@H@@@@QAEXHH@Z
_TEXT	SEGMENT PARA USE32 PUBLIC 'CODE'
_TEXT	ENDS
;	COMDAT ??R?$TArray@VTPair@?$TMapBase@PAVUObject@@PAVFClassNetCache@@@@@@QAEAAVTPair@?$TMapBase@PAVUObject@@PAVFClassNetCache@@@@H@Z
_TEXT	SEGMENT PARA USE32 PUBLIC 'CODE'
_TEXT	ENDS
;	COMDAT ?Remove@?$TArray@VTPair@?$TMapBase@PAVUObject@@PAVFClassNetCache@@@@@@QAEXHH@Z
_TEXT	SEGMENT PARA USE32 PUBLIC 'CODE'
_TEXT	ENDS
;	COMDAT ??1?$TArray@VFDecal@@@@QAE@XZ
_TEXT	SEGMENT PARA USE32 PUBLIC 'CODE'
_TEXT	ENDS
;	COMDAT ?Add@?$TArray@VFPoly@@@@QAEHHH@Z
_TEXT	SEGMENT PARA USE32 PUBLIC 'CODE'
_TEXT	ENDS
;	COMDAT ?Add@?$TArray@VFVector@@@@QAEHHH@Z
_TEXT	SEGMENT PARA USE32 PUBLIC 'CODE'
_TEXT	ENDS
;	COMDAT ??1?$TArray@UFFontCharacter@@@@QAE@XZ
_TEXT	SEGMENT PARA USE32 PUBLIC 'CODE'
_TEXT	ENDS
;	COMDAT ??R?$TArray@UFFontPage@@@@QAEAAUFFontPage@@H@Z
_TEXT	SEGMENT PARA USE32 PUBLIC 'CODE'
_TEXT	ENDS
;	COMDAT ?Remove@?$TArray@VTPair@?$TMapBase@GH@@@@QAEXHH@Z
_TEXT	SEGMENT PARA USE32 PUBLIC 'CODE'
_TEXT	ENDS
;	COMDAT ??R?$TArray@VTPair@?$TMapBase@VFString@@V1@@@@@QAEAAVTPair@?$TMapBase@VFString@@V1@@@H@Z
_TEXT	SEGMENT PARA USE32 PUBLIC 'CODE'
_TEXT	ENDS
;	COMDAT ?Remove@?$TArray@VTPair@?$TMapBase@VFString@@V1@@@@@QAEXHH@Z
_TEXT	SEGMENT PARA USE32 PUBLIC 'CODE'
_TEXT	ENDS
;	COMDAT ?NeedsDestructor@?$TTypeInfoBase@PAVAActor@@@@SAHXZ
_TEXT	SEGMENT PARA USE32 PUBLIC 'CODE'
_TEXT	ENDS
;	COMDAT ??R?$TArray@VTPair@?$TMapBase@VFName@@PAVAActor@@@@@@QAEAAVTPair@?$TMapBase@VFName@@PAVAActor@@@@H@Z
_TEXT	SEGMENT PARA USE32 PUBLIC 'CODE'
_TEXT	ENDS
;	COMDAT ?Remove@?$TArray@VTPair@?$TMapBase@VFName@@PAVAActor@@@@@@QAEXHH@Z
_TEXT	SEGMENT PARA USE32 PUBLIC 'CODE'
_TEXT	ENDS
;	COMDAT ??R?$TArray@VTPair@?$TMapBase@VFString@@PAVUFont@@@@@@QAEAAVTPair@?$TMapBase@VFString@@PAVUFont@@@@H@Z
_TEXT	SEGMENT PARA USE32 PUBLIC 'CODE'
_TEXT	ENDS
;	COMDAT ?Remove@?$TArray@VTPair@?$TMapBase@VFString@@PAVUFont@@@@@@QAEXHH@Z
_TEXT	SEGMENT PARA USE32 PUBLIC 'CODE'
_TEXT	ENDS
;	COMDAT ??R?$TArray@UFMeshVert@@@@QAEAAUFMeshVert@@H@Z
_TEXT	SEGMENT PARA USE32 PUBLIC 'CODE'
_TEXT	ENDS
;	COMDAT ?CountBytes@?$TArray@UFMeshVert@@@@QAEXAAVFArchive@@@Z
_TEXT	SEGMENT PARA USE32 PUBLIC 'CODE'
_TEXT	ENDS
;	COMDAT ?Remove@?$TArray@UFMeshVert@@@@QAEXHH@Z
_TEXT	SEGMENT PARA USE32 PUBLIC 'CODE'
_TEXT	ENDS
;	COMDAT ??R?$TArray@UFMeshTri@@@@QAEAAUFMeshTri@@H@Z
_TEXT	SEGMENT PARA USE32 PUBLIC 'CODE'
_TEXT	ENDS
;	COMDAT ?CountBytes@?$TArray@UFMeshTri@@@@QAEXAAVFArchive@@@Z
_TEXT	SEGMENT PARA USE32 PUBLIC 'CODE'
_TEXT	ENDS
;	COMDAT ?Remove@?$TArray@UFMeshTri@@@@QAEXHH@Z
_TEXT	SEGMENT PARA USE32 PUBLIC 'CODE'
_TEXT	ENDS
;	COMDAT ??R?$TArray@VFMeshAnimSeq@@@@QAEAAVFMeshAnimSeq@@H@Z
_TEXT	SEGMENT PARA USE32 PUBLIC 'CODE'
_TEXT	ENDS
;	COMDAT ??R?$TArray@UFMeshVertConnect@@@@QAEAAUFMeshVertConnect@@H@Z
_TEXT	SEGMENT PARA USE32 PUBLIC 'CODE'
_TEXT	ENDS
;	COMDAT ?CountBytes@?$TArray@UFMeshVertConnect@@@@QAEXAAVFArchive@@@Z
_TEXT	SEGMENT PARA USE32 PUBLIC 'CODE'
_TEXT	ENDS
;	COMDAT ?Remove@?$TArray@UFMeshVertConnect@@@@QAEXHH@Z
_TEXT	SEGMENT PARA USE32 PUBLIC 'CODE'
_TEXT	ENDS
;	COMDAT ?Remove@?$TArray@VTPair@?$TMapBase@VFName@@V1@@@@@QAEXHH@Z
_TEXT	SEGMENT PARA USE32 PUBLIC 'CODE'
_TEXT	ENDS
;	COMDAT ?NeedsDestructor@?$TTypeInfoBase@VFPackageInfo@@@@SAHXZ
_TEXT	SEGMENT PARA USE32 PUBLIC 'CODE'
_TEXT	ENDS
;	COMDAT ?NeedsDestructor@?$TTypeInfoBase@UFRepRecord@@@@SAHXZ
_TEXT	SEGMENT PARA USE32 PUBLIC 'CODE'
_TEXT	ENDS
;	COMDAT ?NeedsDestructor@?$TTypeInfoBase@PAVUField@@@@SAHXZ
_TEXT	SEGMENT PARA USE32 PUBLIC 'CODE'
_TEXT	ENDS
;	COMDAT ?NeedsDestructor@?$TTypeInfoBase@VFClassDependency@@@@SAHXZ
_TEXT	SEGMENT PARA USE32 PUBLIC 'CODE'
_TEXT	ENDS
;	COMDAT ?NeedsDestructor@?$TTypeInfoBase@UFObjectImport@@@@SAHXZ
_TEXT	SEGMENT PARA USE32 PUBLIC 'CODE'
_TEXT	ENDS
;	COMDAT ?NeedsDestructor@?$TTypeInfoBase@UFObjectExport@@@@SAHXZ
_TEXT	SEGMENT PARA USE32 PUBLIC 'CODE'
_TEXT	ENDS
;	COMDAT ?NeedsDestructor@?$TTypeInfoBase@PAVFLazyLoader@@@@SAHXZ
_TEXT	SEGMENT PARA USE32 PUBLIC 'CODE'
_TEXT	ENDS
;	COMDAT ?NeedsDestructor@?$TTypeInfoBase@VFPoly@@@@SAHXZ
_TEXT	SEGMENT PARA USE32 PUBLIC 'CODE'
_TEXT	ENDS
;	COMDAT ?NeedsDestructor@?$TTypeInfoBase@VFBspNode@@@@SAHXZ
_TEXT	SEGMENT PARA USE32 PUBLIC 'CODE'
_TEXT	ENDS
;	COMDAT ?NeedsDestructor@?$TTypeInfoBase@VFVert@@@@SAHXZ
_TEXT	SEGMENT PARA USE32 PUBLIC 'CODE'
_TEXT	ENDS
;	COMDAT ?NeedsDestructor@?$TTypeInfoBase@VFVector@@@@SAHXZ
_TEXT	SEGMENT PARA USE32 PUBLIC 'CODE'
_TEXT	ENDS
;	COMDAT ?NeedsDestructor@?$TTypeInfoBase@VFBspSurf@@@@SAHXZ
_TEXT	SEGMENT PARA USE32 PUBLIC 'CODE'
_TEXT	ENDS
;	COMDAT ?NeedsDestructor@?$TTypeInfoBase@VFLightMapIndex@@@@SAHXZ
_TEXT	SEGMENT PARA USE32 PUBLIC 'CODE'
_TEXT	ENDS
;	COMDAT ?NeedsDestructor@?$TTypeInfoBase@VFBox@@@@SAHXZ
_TEXT	SEGMENT PARA USE32 PUBLIC 'CODE'
_TEXT	ENDS
;	COMDAT ?NeedsDestructor@?$TTypeInfoBase@VFLeaf@@@@SAHXZ
_TEXT	SEGMENT PARA USE32 PUBLIC 'CODE'
_TEXT	ENDS
;	COMDAT ?NeedsDestructor@?$TTypeInfoBase@VFColor@@@@SAHXZ
_TEXT	SEGMENT PARA USE32 PUBLIC 'CODE'
_TEXT	ENDS
;	COMDAT ?NeedsDestructor@?$TTypeInfoBase@UFMipmap@@@@SAHXZ
_TEXT	SEGMENT PARA USE32 PUBLIC 'CODE'
_TEXT	ENDS
;	COMDAT ?NeedsDestructor@?$TTypeInfoBase@UFFontCharacter@@@@SAHXZ
_TEXT	SEGMENT PARA USE32 PUBLIC 'CODE'
_TEXT	ENDS
;	COMDAT ?NeedsDestructor@?$TTypeInfoBase@UFFontPage@@@@SAHXZ
_TEXT	SEGMENT PARA USE32 PUBLIC 'CODE'
_TEXT	ENDS
;	COMDAT ?NeedsDestructor@?$TTypeInfoBase@M@@SAHXZ
_TEXT	SEGMENT PARA USE32 PUBLIC 'CODE'
_TEXT	ENDS
;	COMDAT ?NeedsDestructor@?$TTypeInfoBase@UFMeshDecalTri@@@@SAHXZ
_TEXT	SEGMENT PARA USE32 PUBLIC 'CODE'
_TEXT	ENDS
;	COMDAT ?NeedsDestructor@?$TTypeInfoBase@PAVAParticleCollisionActor@@@@SAHXZ
_TEXT	SEGMENT PARA USE32 PUBLIC 'CODE'
_TEXT	ENDS
;	COMDAT ?NeedsDestructor@?$TTypeInfoBase@VFReachSpec@@@@SAHXZ
_TEXT	SEGMENT PARA USE32 PUBLIC 'CODE'
_TEXT	ENDS
;	COMDAT ?NeedsDestructor@?$TTypeInfoBase@PAVUViewport@@@@SAHXZ
_TEXT	SEGMENT PARA USE32 PUBLIC 'CODE'
_TEXT	ENDS
;	COMDAT ?NeedsDestructor@?$TTypeInfoBase@VFMeshAnimNotify@@@@SAHXZ
_TEXT	SEGMENT PARA USE32 PUBLIC 'CODE'
_TEXT	ENDS
;	COMDAT ?NeedsDestructor@?$TTypeInfoBase@UFMeshVert@@@@SAHXZ
_TEXT	SEGMENT PARA USE32 PUBLIC 'CODE'
_TEXT	ENDS
;	COMDAT ?NeedsDestructor@?$TTypeInfoBase@UFMeshTri@@@@SAHXZ
_TEXT	SEGMENT PARA USE32 PUBLIC 'CODE'
_TEXT	ENDS
;	COMDAT ?NeedsDestructor@?$TTypeInfoBase@VFMeshAnimSeq@@@@SAHXZ
_TEXT	SEGMENT PARA USE32 PUBLIC 'CODE'
_TEXT	ENDS
;	COMDAT ?NeedsDestructor@?$TTypeInfoBase@UFMeshVertConnect@@@@SAHXZ
_TEXT	SEGMENT PARA USE32 PUBLIC 'CODE'
_TEXT	ENDS
;	COMDAT ?NeedsDestructor@?$TTypeInfoBase@PAVUTexture@@@@SAHXZ
_TEXT	SEGMENT PARA USE32 PUBLIC 'CODE'
_TEXT	ENDS
;	COMDAT ?NeedsDestructor@?$TTypeInfoBase@UFMeshFace@@@@SAHXZ
_TEXT	SEGMENT PARA USE32 PUBLIC 'CODE'
_TEXT	ENDS
;	COMDAT ?NeedsDestructor@?$TTypeInfoBase@UFMeshWedge@@@@SAHXZ
_TEXT	SEGMENT PARA USE32 PUBLIC 'CODE'
_TEXT	ENDS
;	COMDAT ?NeedsDestructor@?$TTypeInfoBase@UFMeshMaterial@@@@SAHXZ
_TEXT	SEGMENT PARA USE32 PUBLIC 'CODE'
_TEXT	ENDS
;	COMDAT ??_GTPair@?$TMapBase@VFString@@V1@@@QAEPAXI@Z
_TEXT	SEGMENT PARA USE32 PUBLIC 'CODE'
_TEXT	ENDS
;	COMDAT ??_GTPair@?$TMapBase@VFString@@PAVUFont@@@@QAEPAXI@Z
_TEXT	SEGMENT PARA USE32 PUBLIC 'CODE'
_TEXT	ENDS
;	COMDAT ??1TPair@?$TMapBase@VFString@@V1@@@QAE@XZ
_TEXT	SEGMENT PARA USE32 PUBLIC 'CODE'
_TEXT	ENDS
;	COMDAT ??1TPair@?$TMapBase@VFString@@PAVUFont@@@@QAE@XZ
_TEXT	SEGMENT PARA USE32 PUBLIC 'CODE'
_TEXT	ENDS
;	COMDAT ?Remove@?$TArray@VFDecal@@@@QAEXHH@Z
_TEXT	SEGMENT PARA USE32 PUBLIC 'CODE'
_TEXT	ENDS
;	COMDAT ?Remove@?$TArray@UFFontCharacter@@@@QAEXHH@Z
_TEXT	SEGMENT PARA USE32 PUBLIC 'CODE'
_TEXT	ENDS
;	COMDAT ?NeedsDestructor@?$TTypeInfoBase@VTPair@?$TMapBase@PAVUObject@@H@@@@SAHXZ
_TEXT	SEGMENT PARA USE32 PUBLIC 'CODE'
_TEXT	ENDS
;	COMDAT ?NeedsDestructor@?$TTypeInfoBase@VTPair@?$TMapBase@PAVUObject@@PAVFClassNetCache@@@@@@SAHXZ
_TEXT	SEGMENT PARA USE32 PUBLIC 'CODE'
_TEXT	ENDS
;	COMDAT ?NeedsDestructor@?$TTypeInfoBase@VTPair@?$TMapBase@GH@@@@SAHXZ
_TEXT	SEGMENT PARA USE32 PUBLIC 'CODE'
_TEXT	ENDS
;	COMDAT ?NeedsDestructor@?$TTypeInfoBase@VTPair@?$TMapBase@VFString@@V1@@@@@SAHXZ
_TEXT	SEGMENT PARA USE32 PUBLIC 'CODE'
_TEXT	ENDS
;	COMDAT ?NeedsDestructor@?$TTypeInfoBase@VTPair@?$TMapBase@VFName@@PAVAActor@@@@@@SAHXZ
_TEXT	SEGMENT PARA USE32 PUBLIC 'CODE'
_TEXT	ENDS
;	COMDAT ?NeedsDestructor@?$TTypeInfoBase@VTPair@?$TMapBase@VFString@@PAVUFont@@@@@@SAHXZ
_TEXT	SEGMENT PARA USE32 PUBLIC 'CODE'
_TEXT	ENDS
;	COMDAT ?NeedsDestructor@?$TTypeInfoBase@VTPair@?$TMapBase@VFName@@V1@@@@@SAHXZ
_TEXT	SEGMENT PARA USE32 PUBLIC 'CODE'
_TEXT	ENDS
;	COMDAT ??_GFDecal@@QAEPAXI@Z
_TEXT	SEGMENT PARA USE32 PUBLIC 'CODE'
_TEXT	ENDS
;	COMDAT ??1FDecal@@QAE@XZ
_TEXT	SEGMENT PARA USE32 PUBLIC 'CODE'
_TEXT	ENDS
;	COMDAT ??R?$TArray@VFDecal@@@@QAEAAVFDecal@@H@Z
_TEXT	SEGMENT PARA USE32 PUBLIC 'CODE'
_TEXT	ENDS
;	COMDAT ?NeedsDestructor@?$TTypeInfoBase@VFDecal@@@@SAHXZ
_TEXT	SEGMENT PARA USE32 PUBLIC 'CODE'
_TEXT	ENDS
;	COMDAT ?Clamp@@YAHHHH@Z
_TEXT	SEGMENT PARA USE32 PUBLIC 'CODE'
_TEXT	ENDS
;	COMDAT ?Clamp@@YAKKKK@Z
_TEXT	SEGMENT PARA USE32 PUBLIC 'CODE'
_TEXT	ENDS
;	COMDAT ??2@YAPAXIAAV?$TArray@VFClassDependency@@@@@Z
_TEXT	SEGMENT PARA USE32 PUBLIC 'CODE'
_TEXT	ENDS
;	COMDAT ??2@YAPAXIAAV?$TArray@UFGenerationInfo@@@@@Z
_TEXT	SEGMENT PARA USE32 PUBLIC 'CODE'
_TEXT	ENDS
;	COMDAT ?Align@@YAPAEQAEH@Z
_TEXT	SEGMENT PARA USE32 PUBLIC 'CODE'
_TEXT	ENDS
;	COMDAT ?Abs@@YAMM@Z
_TEXT	SEGMENT PARA USE32 PUBLIC 'CODE'
_TEXT	ENDS
;	COMDAT ?Clamp@@YAMMMM@Z
_TEXT	SEGMENT PARA USE32 PUBLIC 'CODE'
_TEXT	ENDS
;	COMDAT ?Abs@@YANN@Z
_TEXT	SEGMENT PARA USE32 PUBLIC 'CODE'
_TEXT	ENDS
;	COMDAT ?Clamp@@YANNNN@Z
_TEXT	SEGMENT PARA USE32 PUBLIC 'CODE'
_TEXT	ENDS
;	COMDAT ?Sgn@@YAMM@Z
_TEXT	SEGMENT PARA USE32 PUBLIC 'CODE'
_TEXT	ENDS
;	COMDAT ?Max@@YAMMM@Z
_TEXT	SEGMENT PARA USE32 PUBLIC 'CODE'
_TEXT	ENDS
;	COMDAT ?Min@@YAMMM@Z
_TEXT	SEGMENT PARA USE32 PUBLIC 'CODE'
_TEXT	ENDS
;	COMDAT ?Square@@YAMM@Z
_TEXT	SEGMENT PARA USE32 PUBLIC 'CODE'
_TEXT	ENDS
;	COMDAT ?Square@@YANN@Z
_TEXT	SEGMENT PARA USE32 PUBLIC 'CODE'
_TEXT	ENDS
;	COMDAT ?New@@YAPAPAVFSpan@@AAVFMemStack@@HH@Z
_TEXT	SEGMENT PARA USE32 PUBLIC 'CODE'
_TEXT	ENDS
;	COMDAT ?New@@YAPAVFSpan@@AAVFMemStack@@HH@Z
_TEXT	SEGMENT PARA USE32 PUBLIC 'CODE'
_TEXT	ENDS
;	COMDAT ?Max@@YAHHH@Z
_TEXT	SEGMENT PARA USE32 PUBLIC 'CODE'
_TEXT	ENDS
;	COMDAT ?Min@@YAHHH@Z
_TEXT	SEGMENT PARA USE32 PUBLIC 'CODE'
_TEXT	ENDS
;	COMDAT ?Min@@YAKKK@Z
_TEXT	SEGMENT PARA USE32 PUBLIC 'CODE'
_TEXT	ENDS
;	COMDAT ?SafeRelease@@YAJAAPAUIDirect3DDevice8@@@Z
_TEXT	SEGMENT PARA USE32 PUBLIC 'CODE'
_TEXT	ENDS
;	COMDAT ?SafeRelease@@YAJAAPAUIDirect3DTexture8@@@Z
_TEXT	SEGMENT PARA USE32 PUBLIC 'CODE'
_TEXT	ENDS
;	COMDAT ?SafeDelete@@YAXAAPAUFTexInfo@UD3DRenderDevice@@@Z
_TEXT	SEGMENT PARA USE32 PUBLIC 'CODE'
_TEXT	ENDS
;	COMDAT ?SafeRelease@@YAJAAPAUIDirect3DSurface8@@@Z
_TEXT	SEGMENT PARA USE32 PUBLIC 'CODE'
_TEXT	ENDS
;	COMDAT ?Exchange@@YAXAAM0@Z
_TEXT	SEGMENT PARA USE32 PUBLIC 'CODE'
_TEXT	ENDS
;	COMDAT ?Abs@@YAHH@Z
_TEXT	SEGMENT PARA USE32 PUBLIC 'CODE'
_TEXT	ENDS
;	COMDAT ??2@YAPAXIAAV?$TArray@E@@@Z
_TEXT	SEGMENT PARA USE32 PUBLIC 'CODE'
_TEXT	ENDS
;	COMDAT ??2@YAPAXIAAV?$TArray@H@@@Z
_TEXT	SEGMENT PARA USE32 PUBLIC 'CODE'
_TEXT	ENDS
;	COMDAT ??2@YAPAXIAAV?$TArray@UFFontCharacter@@@@@Z
_TEXT	SEGMENT PARA USE32 PUBLIC 'CODE'
_TEXT	ENDS
;	COMDAT ??2@YAPAXIAAV?$TArray@VFMeshAnimNotify@@@@@Z
_TEXT	SEGMENT PARA USE32 PUBLIC 'CODE'
_TEXT	ENDS
;	COMDAT ??2@YAPAXIAAV?$TArray@UProjectorInfo@UD3DRenderDevice@@@@@Z
_TEXT	SEGMENT PARA USE32 PUBLIC 'CODE'
_TEXT	ENDS
;	COMDAT ??2@YAPAXIAAV?$TArray@URenderTargetInfo@UD3DRenderDevice@@@@@Z
_TEXT	SEGMENT PARA USE32 PUBLIC 'CODE'
_TEXT	ENDS
;	COMDAT ?SafeRelease@@YAJAAPAUIDirect3DVertexBuffer8@@@Z
_TEXT	SEGMENT PARA USE32 PUBLIC 'CODE'
_TEXT	ENDS
;	COMDAT ??2@YAPAXIAAV?$TArray@UQueuedPolygon@UD3DRenderDevice@@@@@Z
_TEXT	SEGMENT PARA USE32 PUBLIC 'CODE'
_TEXT	ENDS
;	COMDAT ??2@YAPAXIAAV?$TArray@UQueuedParticleByTexture@UD3DRenderDevice@@@@@Z
_TEXT	SEGMENT PARA USE32 PUBLIC 'CODE'
_TEXT	ENDS
;	COMDAT ??2@YAPAXIAAV?$TArray@UQueuedLineSegment@UD3DRenderDevice@@@@@Z
_TEXT	SEGMENT PARA USE32 PUBLIC 'CODE'
_TEXT	ENDS
;	COMDAT ??2@YAPAXIAAV?$TArray@UFD3DVertex@@@@@Z
_TEXT	SEGMENT PARA USE32 PUBLIC 'CODE'
_TEXT	ENDS
;	COMDAT ??2@YAPAXIAAV?$TArray@VFPoly@@@@@Z
_TEXT	SEGMENT PARA USE32 PUBLIC 'CODE'
_TEXT	ENDS
;	COMDAT ??2@YAPAXIAAV?$TArray@UFMeshVert@@@@@Z
_TEXT	SEGMENT PARA USE32 PUBLIC 'CODE'
_TEXT	ENDS
;	COMDAT ??2@YAPAXIAAV?$TArray@UFMeshTri@@@@@Z
_TEXT	SEGMENT PARA USE32 PUBLIC 'CODE'
_TEXT	ENDS
;	COMDAT ??2@YAPAXIAAV?$TArray@UFMeshVertConnect@@@@@Z
_TEXT	SEGMENT PARA USE32 PUBLIC 'CODE'
_TEXT	ENDS
;	COMDAT ??_EULinkerLoad@@WKE@AEPAXI@Z
_TEXT	SEGMENT PARA USE32 PUBLIC 'CODE'
_TEXT	ENDS
;	COMDAT ??_EULinkerSave@@WKE@AEPAXI@Z
_TEXT	SEGMENT PARA USE32 PUBLIC 'CODE'
_TEXT	ENDS
;	COMDAT ??_SULevel@@6BUObject@@@
CONST	SEGMENT DWORD USE32 PUBLIC 'CONST'
CONST	ENDS
;	COMDAT ?OutXMinTab@?1??ComputeOutcode@FTransform@@QAEXPBUFSceneNode@@@Z@4QBEB
CONST	SEGMENT DWORD USE32 PUBLIC 'CONST'
CONST	ENDS
;	COMDAT ??_SAInternetLink@@6B@
CONST	SEGMENT DWORD USE32 PUBLIC 'CONST'
CONST	ENDS
;	COMDAT ??_SALight@@6B@
CONST	SEGMENT DWORD USE32 PUBLIC 'CONST'
CONST	ENDS
;	COMDAT ??_SUCanvas@@6B@
CONST	SEGMENT DWORD USE32 PUBLIC 'CONST'
CONST	ENDS
;	COMDAT ??_7ULinkerLoad@@6BULinker@@@
CONST	SEGMENT DWORD USE32 PUBLIC 'CONST'
CONST	ENDS
;	COMDAT ??_SAInventory@@6B@
CONST	SEGMENT DWORD USE32 PUBLIC 'CONST'
CONST	ENDS
;	COMDAT ??_7ULinkerSave@@6BULinker@@@
CONST	SEGMENT DWORD USE32 PUBLIC 'CONST'
CONST	ENDS
;	COMDAT ??_SAPolyMarker@@6B@
CONST	SEGMENT DWORD USE32 PUBLIC 'CONST'
CONST	ENDS
;	COMDAT ??_SAlocationid@@6B@
CONST	SEGMENT DWORD USE32 PUBLIC 'CONST'
CONST	ENDS
;	COMDAT ??_SARenderActor@@6B@
CONST	SEGMENT DWORD USE32 PUBLIC 'CONST'
CONST	ENDS
;	COMDAT ??_R0PAX@8
_DATA	SEGMENT DWORD USE32 PUBLIC 'DATA'
_DATA	ENDS
;	COMDAT ??_SAInfoActor@@6B@
CONST	SEGMENT DWORD USE32 PUBLIC 'CONST'
CONST	ENDS
;	COMDAT ??_7?$TLazyArray@E@@6B@
CONST	SEGMENT DWORD USE32 PUBLIC 'CONST'
CONST	ENDS
;	COMDAT ??_7FTexFiller8888_P8@UD3DRenderDevice@@6B@
CONST	SEGMENT DWORD USE32 PUBLIC 'CONST'
CONST	ENDS
;	COMDAT ?OutXMaxTab@?1??ComputeOutcode@FTransform@@QAEXPBUFSceneNode@@@Z@4QBEB
CONST	SEGMENT DWORD USE32 PUBLIC 'CONST'
CONST	ENDS
;	COMDAT ??_SUObjectProperty@@6B@
CONST	SEGMENT DWORD USE32 PUBLIC 'CONST'
CONST	ENDS
;	COMDAT ??_SUState@@6B@
CONST	SEGMENT DWORD USE32 PUBLIC 'CONST'
CONST	ENDS
;	COMDAT ?Half@?1??appFloor@@YAHM@Z@4MA
_DATA	SEGMENT DWORD USE32 PUBLIC 'DATA'
_DATA	ENDS
;	COMDAT __CT??_R0PAX@84
xdata$x	SEGMENT DWORD USE32 PUBLIC 'CONST'
xdata$x	ENDS
;	COMDAT ??_SASpawnNotify@@6B@
CONST	SEGMENT DWORD USE32 PUBLIC 'CONST'
CONST	ENDS
;	COMDAT ??_SUMeshInstance@@6B@
CONST	SEGMENT DWORD USE32 PUBLIC 'CONST'
CONST	ENDS
;	COMDAT ??_7FTexFiller8888_RGBA8@UD3DRenderDevice@@6B@
CONST	SEGMENT DWORD USE32 PUBLIC 'CONST'
CONST	ENDS
;	COMDAT ??_SAActorDamageEffect@@6B@
CONST	SEGMENT DWORD USE32 PUBLIC 'CONST'
CONST	ENDS
;	COMDAT ??_7FMovingBrushTrackerBase@@6B@
CONST	SEGMENT DWORD USE32 PUBLIC 'CONST'
CONST	ENDS
;	COMDAT ??_SATcpLink@@6B@
CONST	SEGMENT DWORD USE32 PUBLIC 'CONST'
CONST	ENDS
;	COMDAT ??_SAPawn@@6B@
CONST	SEGMENT DWORD USE32 PUBLIC 'CONST'
CONST	ENDS
;	COMDAT ??_SUUnrealLodMesh@@6B@
CONST	SEGMENT DWORD USE32 PUBLIC 'CONST'
CONST	ENDS
;	COMDAT ??_SAMutator@@6B@
CONST	SEGMENT DWORD USE32 PUBLIC 'CONST'
CONST	ENDS
;	COMDAT ??_SAMapLocations@@6B@
CONST	SEGMENT DWORD USE32 PUBLIC 'CONST'
CONST	ENDS
;	COMDAT ??_7UD3DRenderDevice@@6BFExec@@@
CONST	SEGMENT DWORD USE32 PUBLIC 'CONST'
CONST	ENDS
;	COMDAT ??_SABrush@@6B@
CONST	SEGMENT DWORD USE32 PUBLIC 'CONST'
CONST	ENDS
;	COMDAT ??_SUSystem@@6BUObject@@@
CONST	SEGMENT DWORD USE32 PUBLIC 'CONST'
CONST	ENDS
;	COMDAT ??_SAClipMarker@@6B@
CONST	SEGMENT DWORD USE32 PUBLIC 'CONST'
CONST	ENDS
;	COMDAT ??_SUPrimitive@@6B@
CONST	SEGMENT DWORD USE32 PUBLIC 'CONST'
CONST	ENDS
;	COMDAT ??_SAPlayerPawn@@6B@
CONST	SEGMENT DWORD USE32 PUBLIC 'CONST'
CONST	ENDS
;	COMDAT ??_SAPlayerStart@@6B@
CONST	SEGMENT DWORD USE32 PUBLIC 'CONST'
CONST	ENDS
;	COMDAT ??_SAWeapon@@6B@
CONST	SEGMENT DWORD USE32 PUBLIC 'CONST'
CONST	ENDS
;	COMDAT ??_SABreakableGlass@@6B@
CONST	SEGMENT DWORD USE32 PUBLIC 'CONST'
CONST	ENDS
;	COMDAT ??_SAPathNode@@6B@
CONST	SEGMENT DWORD USE32 PUBLIC 'CONST'
CONST	ENDS
;	COMDAT ??_SAMover@@6B@
CONST	SEGMENT DWORD USE32 PUBLIC 'CONST'
CONST	ENDS
;	COMDAT ??_SABoneRope@@6B@
CONST	SEGMENT DWORD USE32 PUBLIC 'CONST'
CONST	ENDS
;	COMDAT __CT??_R0PAG@84
xdata$x	SEGMENT DWORD USE32 PUBLIC 'CONST'
xdata$x	ENDS
;	COMDAT ??_SAActor@@6B@
CONST	SEGMENT DWORD USE32 PUBLIC 'CONST'
CONST	ENDS
;	COMDAT ??_SULevelSummary@@6B@
CONST	SEGMENT DWORD USE32 PUBLIC 'CONST'
CONST	ENDS
;	COMDAT ??_7FStringOutputDevice@@6B@
CONST	SEGMENT DWORD USE32 PUBLIC 'CONST'
CONST	ENDS
;	COMDAT ??_SUEnum@@6B@
CONST	SEGMENT DWORD USE32 PUBLIC 'CONST'
CONST	ENDS
;	COMDAT ??_7ULinkerSave@@6BFArchive@@@
CONST	SEGMENT DWORD USE32 PUBLIC 'CONST'
CONST	ENDS
;	COMDAT ??_R0PAG@8
_DATA	SEGMENT DWORD USE32 PUBLIC 'DATA'
_DATA	ENDS
;	COMDAT ??_SACarcass@@6B@
CONST	SEGMENT DWORD USE32 PUBLIC 'CONST'
CONST	ENDS
;	COMDAT ??_SAUdpLink@@6B@
CONST	SEGMENT DWORD USE32 PUBLIC 'CONST'
CONST	ENDS
;	COMDAT ??_SASavedMove@@6B@
CONST	SEGMENT DWORD USE32 PUBLIC 'CONST'
CONST	ENDS
;	COMDAT ??_SUStrProperty@@6B@
CONST	SEGMENT DWORD USE32 PUBLIC 'CONST'
CONST	ENDS
;	COMDAT ??_7UD3DRenderDevice@@6BUObject@@@
CONST	SEGMENT DWORD USE32 PUBLIC 'CONST'
CONST	ENDS
;	COMDAT ??_SADecal@@6B@
CONST	SEGMENT DWORD USE32 PUBLIC 'CONST'
CONST	ENDS
;	COMDAT ??_SANavigationPoint@@6B@
CONST	SEGMENT DWORD USE32 PUBLIC 'CONST'
CONST	ENDS
;	COMDAT ??_SUSound@@6B@
CONST	SEGMENT DWORD USE32 PUBLIC 'CONST'
CONST	ENDS
;	COMDAT ??_SUPackageMap@@6B@
CONST	SEGMENT DWORD USE32 PUBLIC 'CONST'
CONST	ENDS
;	COMDAT ??_SUStructProperty@@6B@
CONST	SEGMENT DWORD USE32 PUBLIC 'CONST'
CONST	ENDS
;	COMDAT ??_SUFunction@@6B@
CONST	SEGMENT DWORD USE32 PUBLIC 'CONST'
CONST	ENDS
;	COMDAT ??_SUMesh@@6B@
CONST	SEGMENT DWORD USE32 PUBLIC 'CONST'
CONST	ENDS
;	COMDAT ??_SAZoneInfo@@6B@
CONST	SEGMENT DWORD USE32 PUBLIC 'CONST'
CONST	ENDS
;	COMDAT ??_SAButtonMarker@@6B@
CONST	SEGMENT DWORD USE32 PUBLIC 'CONST'
CONST	ENDS
;	COMDAT ??_7FBufferArchive@@6B@
CONST	SEGMENT DWORD USE32 PUBLIC 'CONST'
CONST	ENDS
;	COMDAT ??_SAGameInfo@@6B@
CONST	SEGMENT DWORD USE32 PUBLIC 'CONST'
CONST	ENDS
;	COMDAT ??_SATriggers@@6B@
CONST	SEGMENT DWORD USE32 PUBLIC 'CONST'
CONST	ENDS
;	COMDAT ??_7?$TLazyArray@UFMeshTri@@@@6B@
CONST	SEGMENT DWORD USE32 PUBLIC 'CONST'
CONST	ENDS
;	COMDAT ??_SAPlayerReplicationInfo@@6B@
CONST	SEGMENT DWORD USE32 PUBLIC 'CONST'
CONST	ENDS
;	COMDAT ??_SUFontTrueType@@6B@
CONST	SEGMENT DWORD USE32 PUBLIC 'CONST'
CONST	ENDS
;	COMDAT ??_SASoftParticleAffector@@6B@
CONST	SEGMENT DWORD USE32 PUBLIC 'CONST'
CONST	ENDS
;	COMDAT ??_SUObject@@6B@
CONST	SEGMENT DWORD USE32 PUBLIC 'CONST'
CONST	ENDS
;	COMDAT ??_SUClassProperty@@6B@
CONST	SEGMENT DWORD USE32 PUBLIC 'CONST'
CONST	ENDS
;	COMDAT ??_SABeamSystem@@6B@
CONST	SEGMENT DWORD USE32 PUBLIC 'CONST'
CONST	ENDS
;	COMDAT ??_SUInput@@6BUObject@@@
CONST	SEGMENT DWORD USE32 PUBLIC 'CONST'
CONST	ENDS
;	COMDAT ??_7?$TLazyArray@H@@6B@
CONST	SEGMENT DWORD USE32 PUBLIC 'CONST'
CONST	ENDS
;	COMDAT ??_SUDukeMesh@@6B@
CONST	SEGMENT DWORD USE32 PUBLIC 'CONST'
CONST	ENDS
;	COMDAT ??_SAInfo@@6B@
CONST	SEGMENT DWORD USE32 PUBLIC 'CONST'
CONST	ENDS
;	COMDAT ??_SAParticleSystem@@6B@
CONST	SEGMENT DWORD USE32 PUBLIC 'CONST'
CONST	ENDS
;	COMDAT ??_SATeleporter@@6B@
CONST	SEGMENT DWORD USE32 PUBLIC 'CONST'
CONST	ENDS
;	COMDAT ??_SAMeshEffect@@6B@
CONST	SEGMENT DWORD USE32 PUBLIC 'CONST'
CONST	ENDS
;	COMDAT ??_SAFocalPoint@@6B@
CONST	SEGMENT DWORD USE32 PUBLIC 'CONST'
CONST	ENDS
;	COMDAT ??_SAScout@@6B@
CONST	SEGMENT DWORD USE32 PUBLIC 'CONST'
CONST	ENDS
;	COMDAT ??_SAInterpolationStation@@6B@
CONST	SEGMENT DWORD USE32 PUBLIC 'CONST'
CONST	ENDS
;	COMDAT ??_7?$TLazyArray@UFMeshVert@@@@6B@
CONST	SEGMENT DWORD USE32 PUBLIC 'CONST'
CONST	ENDS
;	COMDAT ??_SASkyZoneInfo@@6B@
CONST	SEGMENT DWORD USE32 PUBLIC 'CONST'
CONST	ENDS
;	COMDAT ??_SUFloatProperty@@6B@
CONST	SEGMENT DWORD USE32 PUBLIC 'CONST'
CONST	ENDS
;	COMDAT ??_7FDynamicSprite@@6B@
CONST	SEGMENT DWORD USE32 PUBLIC 'CONST'
CONST	ENDS
;	COMDAT ??_7FTexFillerP8_P8@UD3DRenderDevice@@6B@
CONST	SEGMENT DWORD USE32 PUBLIC 'CONST'
CONST	ENDS
;	COMDAT ??_7FDynamicItem@@6B@
CONST	SEGMENT DWORD USE32 PUBLIC 'CONST'
CONST	ENDS
;	COMDAT ??_SURender@@6BUObject@@@
CONST	SEGMENT DWORD USE32 PUBLIC 'CONST'
CONST	ENDS
;	COMDAT ??_7FTexFiller8888_RGBA7@UD3DRenderDevice@@6B@
CONST	SEGMENT DWORD USE32 PUBLIC 'CONST'
CONST	ENDS
;	COMDAT ??_SUConst@@6B@
CONST	SEGMENT DWORD USE32 PUBLIC 'CONST'
CONST	ENDS
;	COMDAT ??_SUGameEngine@@6BUObject@@@
CONST	SEGMENT DWORD USE32 PUBLIC 'CONST'
CONST	ENDS
;	COMDAT ??_7HActorVertex@@6B@
CONST	SEGMENT DWORD USE32 PUBLIC 'CONST'
CONST	ENDS
;	COMDAT ??_SUNameProperty@@6B@
CONST	SEGMENT DWORD USE32 PUBLIC 'CONST'
CONST	ENDS
;	COMDAT ??_SAParticleCollisionActor@@6B@
CONST	SEGMENT DWORD USE32 PUBLIC 'CONST'
CONST	ENDS
;	COMDAT ??_SAKeypoint@@6B@
CONST	SEGMENT DWORD USE32 PUBLIC 'CONST'
CONST	ENDS
;	COMDAT ??_SUPackage@@6B@
CONST	SEGMENT DWORD USE32 PUBLIC 'CONST'
CONST	ENDS
;	COMDAT ??_7FTexFillerDXT1@UD3DRenderDevice@@6B@
CONST	SEGMENT DWORD USE32 PUBLIC 'CONST'
CONST	ENDS
;	COMDAT ??_SAItem@@6B@
CONST	SEGMENT DWORD USE32 PUBLIC 'CONST'
CONST	ENDS
;	COMDAT ??_SUPalette@@6B@
CONST	SEGMENT DWORD USE32 PUBLIC 'CONST'
CONST	ENDS
;	COMDAT ??_7FLazyLoader@@6B@
CONST	SEGMENT DWORD USE32 PUBLIC 'CONST'
CONST	ENDS
;	COMDAT ??_SUMusic@@6B@
CONST	SEGMENT DWORD USE32 PUBLIC 'CONST'
CONST	ENDS
;	COMDAT ??_SAHUD@@6B@
CONST	SEGMENT DWORD USE32 PUBLIC 'CONST'
CONST	ENDS
;	COMDAT ??_SUCommandlet@@6B@
CONST	SEGMENT DWORD USE32 PUBLIC 'CONST'
CONST	ENDS
;	COMDAT ??_SAWarpZoneMarker@@6B@
CONST	SEGMENT DWORD USE32 PUBLIC 'CONST'
CONST	ENDS
;	COMDAT ??_SATriggerMarker@@6B@
CONST	SEGMENT DWORD USE32 PUBLIC 'CONST'
CONST	ENDS
;	COMDAT ??_7FBufferWriter@@6B@
CONST	SEGMENT DWORD USE32 PUBLIC 'CONST'
CONST	ENDS
;	COMDAT ??_SUBoolProperty@@6B@
CONST	SEGMENT DWORD USE32 PUBLIC 'CONST'
CONST	ENDS
;	COMDAT ??_SADecoration@@6B@
CONST	SEGMENT DWORD USE32 PUBLIC 'CONST'
CONST	ENDS
;	COMDAT ??_SAInterpolationPoint@@6B@
CONST	SEGMENT DWORD USE32 PUBLIC 'CONST'
CONST	ENDS
;	COMDAT ??_SADamageType@@6B@
CONST	SEGMENT DWORD USE32 PUBLIC 'CONST'
CONST	ENDS
;	COMDAT ??_SUFont@@6B@
CONST	SEGMENT DWORD USE32 PUBLIC 'CONST'
CONST	ENDS
;	COMDAT ??_SAMaterial@@6B@
CONST	SEGMENT DWORD USE32 PUBLIC 'CONST'
CONST	ENDS
;	COMDAT ??_SUPolys@@6B@
CONST	SEGMENT DWORD USE32 PUBLIC 'CONST'
CONST	ENDS
;	COMDAT ??_SUUnrealMesh@@6B@
CONST	SEGMENT DWORD USE32 PUBLIC 'CONST'
CONST	ENDS
;	COMDAT ??_7FConfigCache@@6B@
CONST	SEGMENT DWORD USE32 PUBLIC 'CONST'
CONST	ENDS
;	COMDAT ??_SAReplicationInfo@@6B@
CONST	SEGMENT DWORD USE32 PUBLIC 'CONST'
CONST	ENDS
;	COMDAT ??_SUFixedArrayProperty@@6B@
CONST	SEGMENT DWORD USE32 PUBLIC 'CONST'
CONST	ENDS
;	COMDAT ??_SADOTAffector@@6B@
CONST	SEGMENT DWORD USE32 PUBLIC 'CONST'
CONST	ENDS
;	COMDAT ??_SADoorMover@@6B@
CONST	SEGMENT DWORD USE32 PUBLIC 'CONST'
CONST	ENDS
;	COMDAT ??_SAFlareLight@@6B@
CONST	SEGMENT DWORD USE32 PUBLIC 'CONST'
CONST	ENDS
;	COMDAT ??_7ULinkerLoad@@6BFArchive@@@
CONST	SEGMENT DWORD USE32 PUBLIC 'CONST'
CONST	ENDS
;	COMDAT ??_SATrigger@@6B@
CONST	SEGMENT DWORD USE32 PUBLIC 'CONST'
CONST	ENDS
;	COMDAT ??_SUArrayProperty@@6B@
CONST	SEGMENT DWORD USE32 PUBLIC 'CONST'
CONST	ENDS
;	COMDAT ?OutYMaxTab@?1??ComputeOutcode@FTransform@@QAEXPBUFSceneNode@@@Z@4QBEB
CONST	SEGMENT DWORD USE32 PUBLIC 'CONST'
CONST	ENDS
;	COMDAT ??_7FTexFiller@UD3DRenderDevice@@6B@
CONST	SEGMENT DWORD USE32 PUBLIC 'CONST'
CONST	ENDS
;	COMDAT ??_SUVoiceSound@@6B@
CONST	SEGMENT DWORD USE32 PUBLIC 'CONST'
CONST	ENDS
;	COMDAT ??_SAGameReplicationInfo@@6B@
CONST	SEGMENT DWORD USE32 PUBLIC 'CONST'
CONST	ENDS
;	COMDAT ??_SAMeshDecal@@6B@
CONST	SEGMENT DWORD USE32 PUBLIC 'CONST'
CONST	ENDS
;	COMDAT ??_SATriggerLight@@6B@
CONST	SEGMENT DWORD USE32 PUBLIC 'CONST'
CONST	ENDS
;	COMDAT ??_7FCollisionHashBase@@6B@
CONST	SEGMENT DWORD USE32 PUBLIC 'CONST'
CONST	ENDS
;	COMDAT ??_7?$TLazyArray@UFMeshVertConnect@@@@6B@
CONST	SEGMENT DWORD USE32 PUBLIC 'CONST'
CONST	ENDS
;	COMDAT ??_SUIntProperty@@6B@
CONST	SEGMENT DWORD USE32 PUBLIC 'CONST'
CONST	ENDS
;	COMDAT ??_SUStruct@@6B@
CONST	SEGMENT DWORD USE32 PUBLIC 'CONST'
CONST	ENDS
;	COMDAT ??_SULinker@@6B@
CONST	SEGMENT DWORD USE32 PUBLIC 'CONST'
CONST	ENDS
;	COMDAT ??_SADukeNet@@6B@
CONST	SEGMENT DWORD USE32 PUBLIC 'CONST'
CONST	ENDS
;	COMDAT ?OutYMinTab@?1??ComputeOutcode@FTransform@@QAEXPBUFSceneNode@@@Z@4QBEB
CONST	SEGMENT DWORD USE32 PUBLIC 'CONST'
CONST	ENDS
;	COMDAT ??_SASoftParticleSystem@@6B@
CONST	SEGMENT DWORD USE32 PUBLIC 'CONST'
CONST	ENDS
;	COMDAT ??_SAWarpZoneInfo@@6B@
CONST	SEGMENT DWORD USE32 PUBLIC 'CONST'
CONST	ENDS
;	COMDAT ??_SUTexture@@6B@
CONST	SEGMENT DWORD USE32 PUBLIC 'CONST'
CONST	ENDS
;	COMDAT ??_SAInventorySpot@@6B@
CONST	SEGMENT DWORD USE32 PUBLIC 'CONST'
CONST	ENDS
;	COMDAT ??_7FTexFiller1555_RGBA7@UD3DRenderDevice@@6B@
CONST	SEGMENT DWORD USE32 PUBLIC 'CONST'
CONST	ENDS
;	COMDAT ??_SUModel@@6B@
CONST	SEGMENT DWORD USE32 PUBLIC 'CONST'
CONST	ENDS
;	COMDAT ??_7FTexFiller1555_P8@UD3DRenderDevice@@6B@
CONST	SEGMENT DWORD USE32 PUBLIC 'CONST'
CONST	ENDS
;	COMDAT ??_SUByteProperty@@6B@
CONST	SEGMENT DWORD USE32 PUBLIC 'CONST'
CONST	ENDS
;	COMDAT ??_SALiftCenter@@6B@
CONST	SEGMENT DWORD USE32 PUBLIC 'CONST'
CONST	ENDS
;	COMDAT __CTA2PAG
xdata$x	SEGMENT DWORD USE32 PUBLIC 'CONST'
xdata$x	ENDS
;	COMDAT ??_SUScriptedTexture@@6B@
CONST	SEGMENT DWORD USE32 PUBLIC 'CONST'
CONST	ENDS
;	COMDAT ??_SURenderIterator@@6B@
CONST	SEGMENT DWORD USE32 PUBLIC 'CONST'
CONST	ENDS
;	COMDAT ??_SUMapProperty@@6B@
CONST	SEGMENT DWORD USE32 PUBLIC 'CONST'
CONST	ENDS
;	COMDAT ??_SALevelInfo@@6B@
CONST	SEGMENT DWORD USE32 PUBLIC 'CONST'
CONST	ENDS
;	COMDAT __TI2PAG
xdata$x	SEGMENT DWORD USE32 PUBLIC 'CONST'
xdata$x	ENDS
;	COMDAT ??_SUTextBuffer@@6BUObject@@@
CONST	SEGMENT DWORD USE32 PUBLIC 'CONST'
CONST	ENDS
;	COMDAT ??_SACamera@@6B@
CONST	SEGMENT DWORD USE32 PUBLIC 'CONST'
CONST	ENDS
;	COMDAT ??_SALiftExit@@6B@
CONST	SEGMENT DWORD USE32 PUBLIC 'CONST'
CONST	ENDS
;	COMDAT ??_SAProjectile@@6B@
CONST	SEGMENT DWORD USE32 PUBLIC 'CONST'
CONST	ENDS
;	COMDAT ??_SUClass@@6B@
CONST	SEGMENT DWORD USE32 PUBLIC 'CONST'
CONST	ENDS
;	COMDAT ??_SAInternetInfo@@6B@
CONST	SEGMENT DWORD USE32 PUBLIC 'CONST'
CONST	ENDS
FLAT	GROUP _DATA, CONST, _BSS, CRT$XCA, CRT$XCU, CRT$XCL, CRT$XCC, CRT$XCZ, xdata$x
	ASSUME	CS: FLAT, DS: FLAT, SS: FLAT
endif

INCLUDELIB MSVCRT
INCLUDELIB OLDNAMES

PUBLIC	?FogEnd@@3MA					; FogEnd
PUBLIC	?FogEnd_ExecVar@@3VFExecVariable@@A		; FogEnd_ExecVar
PUBLIC	?RenderParticles@@3HA				; RenderParticles
PUBLIC	?RenderParticles_ExecVar@@3VFExecVariable@@A	; RenderParticles_ExecVar
PUBLIC	?RenderMeshes@@3HA				; RenderMeshes
PUBLIC	?RenderMeshes_ExecVar@@3VFExecVariable@@A	; RenderMeshes_ExecVar
PUBLIC	?RenderSurfaces@@3HA				; RenderSurfaces
PUBLIC	?RenderSurfaces_ExecVar@@3VFExecVariable@@A	; RenderSurfaces_ExecVar
PUBLIC	?RenderLines@@3HA				; RenderLines
PUBLIC	?RenderLines_ExecVar@@3VFExecVariable@@A	; RenderLines_ExecVar
PUBLIC	?RenderTiles@@3HA				; RenderTiles
PUBLIC	?RenderTiles_ExecVar@@3VFExecVariable@@A	; RenderTiles_ExecVar
PUBLIC	?RenderPoints@@3HA				; RenderPoints
PUBLIC	?RenderPoints_ExecVar@@3VFExecVariable@@A	; RenderPoints_ExecVar
PUBLIC	?WorldDetail@@3HA				; WorldDetail
PUBLIC	?WorldDetail_ExecVar@@3VFExecVariable@@A	; WorldDetail_ExecVar
PUBLIC	?CacheBlending@@3HA				; CacheBlending
PUBLIC	?CacheBlending_ExecVar@@3VFExecVariable@@A	; CacheBlending_ExecVar
PUBLIC	?LodBias@@3MA					; LodBias
PUBLIC	?NearZ@@3MA					; NearZ
PUBLIC	?NearZ_ExecVar@@3VFExecVariable@@A		; NearZ_ExecVar
PUBLIC	?GetNearZ_ExecFunc@@3VFExecFunction@@A		; GetNearZ_ExecFunc
PUBLIC	?h@@3JA						; h
PUBLIC	?Adapters@@3V?$TArray@U_D3DADAPTER_IDENTIFIER8@@@@A ; Adapters
PUBLIC	?BestAdapterIndex@@3HA				; BestAdapterIndex
PUBLIC	?DeviceCaps8@@3U_D3DCAPS8@@A			; DeviceCaps8
PUBLIC	?DeviceIdentifier@@3U_D3DADAPTER_IDENTIFIER8@@A	; DeviceIdentifier
PUBLIC	_GPackage
PUBLIC	?DisplayModes@@3V?$TArray@U_D3DDISPLAYMODE@@@@A	; DisplayModes
PUBLIC	?RScale@@3PAGA					; RScale
PUBLIC	?GScale@@3PAGA					; GScale
PUBLIC	?BScale@@3PAGA					; BScale
PUBLIC	?OriginalDisplayMode@@3U_D3DDISPLAYMODE@@A	; OriginalDisplayMode
PUBLIC	?PrivateStaticClass@UD3DRenderDevice@@0VUClass@@A ; UD3DRenderDevice::PrivateStaticClass
PUBLIC	_autoclassUD3DRenderDevice
PUBLIC	_hInstance
PUBLIC	?FogStart@@3MA					; FogStart
PUBLIC	?FogStart_ExecVar@@3VFExecVariable@@A		; FogStart_ExecVar
_BSS	SEGMENT
?FogEnd_ExecVar@@3VFExecVariable@@A DB 01cH DUP (?)	; FogEnd_ExecVar
?RenderParticles_ExecVar@@3VFExecVariable@@A DB 01cH DUP (?) ; RenderParticles_ExecVar
?RenderMeshes_ExecVar@@3VFExecVariable@@A DB 01cH DUP (?) ; RenderMeshes_ExecVar
?RenderSurfaces_ExecVar@@3VFExecVariable@@A DB 01cH DUP (?) ; RenderSurfaces_ExecVar
?RenderLines_ExecVar@@3VFExecVariable@@A DB 01cH DUP (?) ; RenderLines_ExecVar
?RenderTiles_ExecVar@@3VFExecVariable@@A DB 01cH DUP (?) ; RenderTiles_ExecVar
?RenderPoints_ExecVar@@3VFExecVariable@@A DB 01cH DUP (?) ; RenderPoints_ExecVar
?WorldDetail_ExecVar@@3VFExecVariable@@A DB 01cH DUP (?) ; WorldDetail_ExecVar
?CacheBlending_ExecVar@@3VFExecVariable@@A DB 01cH DUP (?) ; CacheBlending_ExecVar
?NearZ_ExecVar@@3VFExecVariable@@A DB 01cH DUP (?)	; NearZ_ExecVar
?GetNearZ_ExecFunc@@3VFExecFunction@@A DB 014H DUP (?)	; GetNearZ_ExecFunc
?h@@3JA	DD	01H DUP (?)				; h
_ErrorCalled DB	01H DUP (?)
	ALIGN	4

?Adapters@@3V?$TArray@U_D3DADAPTER_IDENTIFIER8@@@@A DB 0cH DUP (?) ; Adapters
?BestAdapterIndex@@3HA DD 01H DUP (?)			; BestAdapterIndex
?DeviceCaps8@@3U_D3DCAPS8@@A DB 0d4H DUP (?)		; DeviceCaps8
?DeviceIdentifier@@3U_D3DADAPTER_IDENTIFIER8@@A DB 042cH DUP (?) ; DeviceIdentifier
?DisplayModes@@3V?$TArray@U_D3DDISPLAYMODE@@@@A DB 0cH DUP (?) ; DisplayModes
?RScale@@3PAGA DW 02040H DUP (?)			; RScale
?GScale@@3PAGA DW 02040H DUP (?)			; GScale
?BScale@@3PAGA DW 02040H DUP (?)			; BScale
?OriginalDisplayMode@@3U_D3DDISPLAYMODE@@A DB 010H DUP (?) ; OriginalDisplayMode
?PrivateStaticClass@UD3DRenderDevice@@0VUClass@@A DB 0528H DUP (?) ; UD3DRenderDevice::PrivateStaticClass
_autoclassUD3DRenderDevice DD 01H DUP (?)
_hInstance DD	01H DUP (?)
?FogStart_ExecVar@@3VFExecVariable@@A DB 01cH DUP (?)	; FogStart_ExecVar
_BSS	ENDS
_DATA	SEGMENT
?FogStart@@3MA DD 042480000r			; 50	; FogStart
_DATA	ENDS
CRT$XCU	SEGMENT
_$S233	DD	FLAT:_$E232
CRT$XCU	ENDS
_DATA	SEGMENT
?FogEnd@@3MA DD	042c80000r			; 100	; FogEnd
_DATA	ENDS
CRT$XCU	SEGMENT
_$S238	DD	FLAT:_$E237
CRT$XCU	ENDS
_DATA	SEGMENT
?RenderParticles@@3HA DD 01H				; RenderParticles
_DATA	ENDS
CRT$XCU	SEGMENT
_$S243	DD	FLAT:_$E242
CRT$XCU	ENDS
_DATA	SEGMENT
?RenderMeshes@@3HA DD 01H				; RenderMeshes
_DATA	ENDS
CRT$XCU	SEGMENT
_$S248	DD	FLAT:_$E247
CRT$XCU	ENDS
_DATA	SEGMENT
?RenderSurfaces@@3HA DD 01H				; RenderSurfaces
_DATA	ENDS
CRT$XCU	SEGMENT
_$S253	DD	FLAT:_$E252
CRT$XCU	ENDS
_DATA	SEGMENT
?RenderLines@@3HA DD 01H				; RenderLines
_DATA	ENDS
CRT$XCU	SEGMENT
_$S258	DD	FLAT:_$E257
CRT$XCU	ENDS
_DATA	SEGMENT
?RenderTiles@@3HA DD 01H				; RenderTiles
_DATA	ENDS
CRT$XCU	SEGMENT
_$S263	DD	FLAT:_$E262
CRT$XCU	ENDS
_DATA	SEGMENT
?RenderPoints@@3HA DD 01H				; RenderPoints
_DATA	ENDS
CRT$XCU	SEGMENT
_$S268	DD	FLAT:_$E267
CRT$XCU	ENDS
_DATA	SEGMENT
?WorldDetail@@3HA DD 01H				; WorldDetail
_DATA	ENDS
CRT$XCU	SEGMENT
_$S273	DD	FLAT:_$E272
CRT$XCU	ENDS
_DATA	SEGMENT
?CacheBlending@@3HA DD 01H				; CacheBlending
_DATA	ENDS
CRT$XCU	SEGMENT
_$S278	DD	FLAT:_$E277
CRT$XCU	ENDS
_DATA	SEGMENT
?LodBias@@3MA DD 0bf19999ar			; -0.6	; LodBias
?NearZ@@3MA DD	043480000r			; 200	; NearZ
_DATA	ENDS
CRT$XCU	SEGMENT
_$S283	DD	FLAT:_$E282
_$S288	DD	FLAT:_$E287
CRT$XCU	ENDS
CONST	SEGMENT
_NEAR_CLIP DD	03f800000r			; 1
_FAR_CLIP DD	0477fff00r			; 65535
CONST	ENDS
CRT$XCU	SEGMENT
_$S291	DD	FLAT:_$E290
_$S296	DD	FLAT:_$E295
_$S301	DD	FLAT:_$E300
CRT$XCU	ENDS
_DATA	SEGMENT
_GPackage DB	'D', 00H, '3', 00H, 'D', 00H, 'D', 00H, 'r', 00H, 'v', 00H
	DB	00H, 00H
_DATA	ENDS
CRT$XCU	SEGMENT
_$S318	DD	FLAT:_$E317
_$S321	DD	FLAT:_$E320
CRT$XCU	ENDS
PUBLIC	??2@YAPAXI@Z					; operator new
PUBLIC	??_C@_17JBDG@?$AAn?$AAe?$AAw?$AA?$AA@		; `string'
EXTRN	__imp_?GMalloc@@3PAVFMalloc@@A:DWORD
;	COMDAT ??_C@_17JBDG@?$AAn?$AAe?$AAw?$AA?$AA@
; File ..\..\Core\Inc\UnFile.h
_DATA	SEGMENT
??_C@_17JBDG@?$AAn?$AAe?$AAw?$AA?$AA@ DB 'n', 00H, 'e', 00H, 'w', 00H, 00H
	DB	00H						; `string'
; Function compile flags: /Ogty
_DATA	ENDS
;	COMDAT ??2@YAPAXI@Z
_TEXT	SEGMENT
_Size$ = 8
??2@YAPAXI@Z PROC NEAR					; operator new, COMDAT

; 624  : 	return appMalloc( Size, TEXT("new") );

	mov	eax, DWORD PTR __imp_?GMalloc@@3PAVFMalloc@@A
	mov	ecx, DWORD PTR [eax]
	mov	eax, DWORD PTR _Size$[esp-4]
	mov	edx, DWORD PTR [ecx]
	push	OFFSET FLAT:??_C@_17JBDG@?$AAn?$AAe?$AAw?$AA?$AA@ ; `string'
	push	eax
	call	DWORD PTR [edx]

; 625  : }

	ret	0
??2@YAPAXI@Z ENDP					; operator new
_TEXT	ENDS
PUBLIC	??3@YAXPAX@Z					; operator delete
; Function compile flags: /Ogty
;	COMDAT ??3@YAXPAX@Z
_TEXT	SEGMENT
_Ptr$ = 8
??3@YAXPAX@Z PROC NEAR					; operator delete, COMDAT

; 628  : 	appFree( Ptr );

	mov	eax, DWORD PTR __imp_?GMalloc@@3PAVFMalloc@@A
	mov	ecx, DWORD PTR [eax]
	mov	eax, DWORD PTR _Ptr$[esp-4]
	mov	edx, DWORD PTR [ecx]
	push	eax
	call	DWORD PTR [edx+8]

; 629  : }

	ret	0
??3@YAXPAX@Z ENDP					; operator delete
_TEXT	ENDS
PUBLIC	??_H@YGXPAXIHP6EX0@Z@Z				; `vector constructor iterator'
; Function compile flags: /Ogty
;	COMDAT ??_H@YGXPAXIHP6EX0@Z@Z
_TEXT	SEGMENT
___t$ = 8
___s$ = 12
___n$ = 16
___f$ = 20
??_H@YGXPAXIHP6EX0@Z@Z PROC NEAR			; `vector constructor iterator', COMDAT
	mov	eax, DWORD PTR ___n$[esp-4]
	dec	eax
	js	SHORT $L96299
	push	ebx
	mov	ebx, DWORD PTR ___f$[esp]
	push	ebp
	mov	ebp, DWORD PTR ___s$[esp+4]
	push	esi
	mov	esi, DWORD PTR ___t$[esp+8]
	push	edi
	lea	edi, DWORD PTR [eax+1]
	npad	6
$L96298:
	mov	ecx, esi
	call	ebx
	add	esi, ebp
	dec	edi
	jne	SHORT $L96298
	pop	edi
	pop	esi
	pop	ebp
	pop	ebx
$L96299:
	ret	16					; 00000010H
??_H@YGXPAXIHP6EX0@Z@Z ENDP				; `vector constructor iterator'
; Function compile flags: /Ogty
_TEXT	ENDS
;	COMDAT _$E232
_TEXT	SEGMENT
_$E232	PROC NEAR					; COMDAT
	call	_$E229
	jmp	_$E231
_$E232	ENDP
_TEXT	ENDS
PUBLIC	??_C@_1BC@CONI@?$AAF?$AAo?$AAg?$AAS?$AAt?$AAa?$AAr?$AAt?$AA?$AA@ ; `string'
PUBLIC	??_C@_11A@?$AA?$AA@				; `string'
PUBLIC	??_C@_1M@IEEK@?$AAf?$AAl?$AAo?$AAa?$AAt?$AA?$AA@ ; `string'
EXTRN	__imp_??0FExecVariable@@QAE@PAGKPAX00@Z:NEAR
;	COMDAT ??_C@_11A@?$AA?$AA@
; File D:\DEV\DNF2001\Stable\D3DDrv\Src\Direct3D8.cpp
_BSS	SEGMENT
??_C@_11A@?$AA?$AA@ DW 01H DUP (?)			; `string'
_BSS	ENDS
;	COMDAT ??_C@_1M@IEEK@?$AAf?$AAl?$AAo?$AAa?$AAt?$AA?$AA@
_DATA	SEGMENT
??_C@_1M@IEEK@?$AAf?$AAl?$AAo?$AAa?$AAt?$AA?$AA@ DB 'f', 00H, 'l', 00H, 'o'
	DB	00H, 'a', 00H, 't', 00H, 00H, 00H		; `string'
_DATA	ENDS
;	COMDAT ??_C@_1BC@CONI@?$AAF?$AAo?$AAg?$AAS?$AAt?$AAa?$AAr?$AAt?$AA?$AA@
_DATA	SEGMENT
??_C@_1BC@CONI@?$AAF?$AAo?$AAg?$AAS?$AAt?$AAa?$AAr?$AAt?$AA?$AA@ DB 'F', 00H
	DB	'o', 00H, 'g', 00H, 'S', 00H, 't', 00H, 'a', 00H, 'r', 00H, 't'
	DB	00H, 00H, 00H				; `string'
; Function compile flags: /Ogty
_DATA	ENDS
;	COMDAT _$E229
_TEXT	SEGMENT
_$E229	PROC NEAR					; COMDAT

; 24   : EXECVAR		(float,	FogStart,		 50.f  );

	push	OFFSET FLAT:??_C@_11A@?$AA?$AA@		; `string'
	push	OFFSET FLAT:??_C@_1M@IEEK@?$AAf?$AAl?$AAo?$AAa?$AAt?$AA?$AA@ ; `string'
	push	OFFSET FLAT:?FogStart@@3MA		; FogStart
	push	0
	push	OFFSET FLAT:??_C@_1BC@CONI@?$AAF?$AAo?$AAg?$AAS?$AAt?$AAa?$AAr?$AAt?$AA?$AA@ ; `string'
	mov	ecx, OFFSET FLAT:?FogStart_ExecVar@@3VFExecVariable@@A
	call	DWORD PTR __imp_??0FExecVariable@@QAE@PAGKPAX00@Z
	ret	0
_$E229	ENDP
_TEXT	ENDS
EXTRN	_atexit:NEAR
; Function compile flags: /Ogty
;	COMDAT _$E231
_TEXT	SEGMENT
_$E231	PROC NEAR					; COMDAT
	push	OFFSET FLAT:_$E230
	call	_atexit
	pop	ecx
	ret	0
_$E231	ENDP
_TEXT	ENDS
EXTRN	__imp_??1FExecVariable@@QAE@XZ:NEAR
; Function compile flags: /Ogty
;	COMDAT _$E230
_TEXT	SEGMENT
_$E230	PROC NEAR					; COMDAT
	mov	ecx, OFFSET FLAT:?FogStart_ExecVar@@3VFExecVariable@@A
	jmp	DWORD PTR __imp_??1FExecVariable@@QAE@XZ
_$E230	ENDP
; Function compile flags: /Ogty
_TEXT	ENDS
;	COMDAT _$E237
_TEXT	SEGMENT
_$E237	PROC NEAR					; COMDAT
	call	_$E234
	jmp	_$E236
_$E237	ENDP
_TEXT	ENDS
PUBLIC	??_C@_1O@GJLM@?$AAF?$AAo?$AAg?$AAE?$AAn?$AAd?$AA?$AA@ ; `string'
;	COMDAT ??_C@_1O@GJLM@?$AAF?$AAo?$AAg?$AAE?$AAn?$AAd?$AA?$AA@
_DATA	SEGMENT
??_C@_1O@GJLM@?$AAF?$AAo?$AAg?$AAE?$AAn?$AAd?$AA?$AA@ DB 'F', 00H, 'o', 00H
	DB	'g', 00H, 'E', 00H, 'n', 00H, 'd', 00H, 00H, 00H ; `string'
; Function compile flags: /Ogty
_DATA	ENDS
;	COMDAT _$E234
_TEXT	SEGMENT
_$E234	PROC NEAR					; COMDAT

; 25   : EXECVAR		(float,	FogEnd,			 100.f );

	push	OFFSET FLAT:??_C@_11A@?$AA?$AA@		; `string'
	push	OFFSET FLAT:??_C@_1M@IEEK@?$AAf?$AAl?$AAo?$AAa?$AAt?$AA?$AA@ ; `string'
	push	OFFSET FLAT:?FogEnd@@3MA		; FogEnd
	push	0
	push	OFFSET FLAT:??_C@_1O@GJLM@?$AAF?$AAo?$AAg?$AAE?$AAn?$AAd?$AA?$AA@ ; `string'
	mov	ecx, OFFSET FLAT:?FogEnd_ExecVar@@3VFExecVariable@@A
	call	DWORD PTR __imp_??0FExecVariable@@QAE@PAGKPAX00@Z
	ret	0
_$E234	ENDP
; Function compile flags: /Ogty
_TEXT	ENDS
;	COMDAT _$E236
_TEXT	SEGMENT
_$E236	PROC NEAR					; COMDAT
	push	OFFSET FLAT:_$E235
	call	_atexit
	pop	ecx
	ret	0
_$E236	ENDP
; Function compile flags: /Ogty
_TEXT	ENDS
;	COMDAT _$E235
_TEXT	SEGMENT
_$E235	PROC NEAR					; COMDAT
	mov	ecx, OFFSET FLAT:?FogEnd_ExecVar@@3VFExecVariable@@A
	jmp	DWORD PTR __imp_??1FExecVariable@@QAE@XZ
_$E235	ENDP
; Function compile flags: /Ogty
_TEXT	ENDS
;	COMDAT _$E242
_TEXT	SEGMENT
_$E242	PROC NEAR					; COMDAT
	call	_$E239
	jmp	_$E241
_$E242	ENDP
_TEXT	ENDS
PUBLIC	??_C@_17NLGL@?$AAI?$AAN?$AAT?$AA?$AA@		; `string'
PUBLIC	??_C@_1CA@HBNN@?$AAR?$AAe?$AAn?$AAd?$AAe?$AAr?$AAP?$AAa?$AAr?$AAt?$AAi?$AAc?$AAl?$AAe?$AAs?$AA?$AA@ ; `string'
;	COMDAT ??_C@_17NLGL@?$AAI?$AAN?$AAT?$AA?$AA@
_DATA	SEGMENT
??_C@_17NLGL@?$AAI?$AAN?$AAT?$AA?$AA@ DB 'I', 00H, 'N', 00H, 'T', 00H, 00H
	DB	00H						; `string'
_DATA	ENDS
;	COMDAT ??_C@_1CA@HBNN@?$AAR?$AAe?$AAn?$AAd?$AAe?$AAr?$AAP?$AAa?$AAr?$AAt?$AAi?$AAc?$AAl?$AAe?$AAs?$AA?$AA@
_DATA	SEGMENT
??_C@_1CA@HBNN@?$AAR?$AAe?$AAn?$AAd?$AAe?$AAr?$AAP?$AAa?$AAr?$AAt?$AAi?$AAc?$AAl?$AAe?$AAs?$AA?$AA@ DB 'R'
	DB	00H, 'e', 00H, 'n', 00H, 'd', 00H, 'e', 00H, 'r', 00H, 'P', 00H
	DB	'a', 00H, 'r', 00H, 't', 00H, 'i', 00H, 'c', 00H, 'l', 00H, 'e'
	DB	00H, 's', 00H, 00H, 00H			; `string'
; Function compile flags: /Ogty
_DATA	ENDS
;	COMDAT _$E239
_TEXT	SEGMENT
_$E239	PROC NEAR					; COMDAT

; 26   : EXECVAR		(INT,   RenderParticles, true  );

	push	OFFSET FLAT:??_C@_11A@?$AA?$AA@		; `string'
	push	OFFSET FLAT:??_C@_17NLGL@?$AAI?$AAN?$AAT?$AA?$AA@ ; `string'
	push	OFFSET FLAT:?RenderParticles@@3HA	; RenderParticles
	push	0
	push	OFFSET FLAT:??_C@_1CA@HBNN@?$AAR?$AAe?$AAn?$AAd?$AAe?$AAr?$AAP?$AAa?$AAr?$AAt?$AAi?$AAc?$AAl?$AAe?$AAs?$AA?$AA@ ; `string'
	mov	ecx, OFFSET FLAT:?RenderParticles_ExecVar@@3VFExecVariable@@A
	call	DWORD PTR __imp_??0FExecVariable@@QAE@PAGKPAX00@Z
	ret	0
_$E239	ENDP
; Function compile flags: /Ogty
_TEXT	ENDS
;	COMDAT _$E241
_TEXT	SEGMENT
_$E241	PROC NEAR					; COMDAT
	push	OFFSET FLAT:_$E240
	call	_atexit
	pop	ecx
	ret	0
_$E241	ENDP
; Function compile flags: /Ogty
_TEXT	ENDS
;	COMDAT _$E240
_TEXT	SEGMENT
_$E240	PROC NEAR					; COMDAT
	mov	ecx, OFFSET FLAT:?RenderParticles_ExecVar@@3VFExecVariable@@A
	jmp	DWORD PTR __imp_??1FExecVariable@@QAE@XZ
_$E240	ENDP
; Function compile flags: /Ogty
_TEXT	ENDS
;	COMDAT _$E247
_TEXT	SEGMENT
_$E247	PROC NEAR					; COMDAT
	call	_$E244
	jmp	_$E246
_$E247	ENDP
_TEXT	ENDS
PUBLIC	??_C@_1BK@FPPB@?$AAR?$AAe?$AAn?$AAd?$AAe?$AAr?$AAM?$AAe?$AAs?$AAh?$AAe?$AAs?$AA?$AA@ ; `string'
;	COMDAT ??_C@_1BK@FPPB@?$AAR?$AAe?$AAn?$AAd?$AAe?$AAr?$AAM?$AAe?$AAs?$AAh?$AAe?$AAs?$AA?$AA@
_DATA	SEGMENT
??_C@_1BK@FPPB@?$AAR?$AAe?$AAn?$AAd?$AAe?$AAr?$AAM?$AAe?$AAs?$AAh?$AAe?$AAs?$AA?$AA@ DB 'R'
	DB	00H, 'e', 00H, 'n', 00H, 'd', 00H, 'e', 00H, 'r', 00H, 'M', 00H
	DB	'e', 00H, 's', 00H, 'h', 00H, 'e', 00H, 's', 00H, 00H, 00H ; `string'
; Function compile flags: /Ogty
_DATA	ENDS
;	COMDAT _$E244
_TEXT	SEGMENT
_$E244	PROC NEAR					; COMDAT

; 27   : EXECVAR		(INT,	RenderMeshes,	 true  );

	push	OFFSET FLAT:??_C@_11A@?$AA?$AA@		; `string'
	push	OFFSET FLAT:??_C@_17NLGL@?$AAI?$AAN?$AAT?$AA?$AA@ ; `string'
	push	OFFSET FLAT:?RenderMeshes@@3HA		; RenderMeshes
	push	0
	push	OFFSET FLAT:??_C@_1BK@FPPB@?$AAR?$AAe?$AAn?$AAd?$AAe?$AAr?$AAM?$AAe?$AAs?$AAh?$AAe?$AAs?$AA?$AA@ ; `string'
	mov	ecx, OFFSET FLAT:?RenderMeshes_ExecVar@@3VFExecVariable@@A
	call	DWORD PTR __imp_??0FExecVariable@@QAE@PAGKPAX00@Z
	ret	0
_$E244	ENDP
; Function compile flags: /Ogty
_TEXT	ENDS
;	COMDAT _$E246
_TEXT	SEGMENT
_$E246	PROC NEAR					; COMDAT
	push	OFFSET FLAT:_$E245
	call	_atexit
	pop	ecx
	ret	0
_$E246	ENDP
; Function compile flags: /Ogty
_TEXT	ENDS
;	COMDAT _$E245
_TEXT	SEGMENT
_$E245	PROC NEAR					; COMDAT
	mov	ecx, OFFSET FLAT:?RenderMeshes_ExecVar@@3VFExecVariable@@A
	jmp	DWORD PTR __imp_??1FExecVariable@@QAE@XZ
_$E245	ENDP
; Function compile flags: /Ogty
_TEXT	ENDS
;	COMDAT _$E252
_TEXT	SEGMENT
_$E252	PROC NEAR					; COMDAT
	call	_$E249
	jmp	_$E251
_$E252	ENDP
_TEXT	ENDS
PUBLIC	??_C@_1BO@GOHM@?$AAR?$AAe?$AAn?$AAd?$AAe?$AAr?$AAS?$AAu?$AAr?$AAf?$AAa?$AAc?$AAe?$AAs?$AA?$AA@ ; `string'
;	COMDAT ??_C@_1BO@GOHM@?$AAR?$AAe?$AAn?$AAd?$AAe?$AAr?$AAS?$AAu?$AAr?$AAf?$AAa?$AAc?$AAe?$AAs?$AA?$AA@
_DATA	SEGMENT
??_C@_1BO@GOHM@?$AAR?$AAe?$AAn?$AAd?$AAe?$AAr?$AAS?$AAu?$AAr?$AAf?$AAa?$AAc?$AAe?$AAs?$AA?$AA@ DB 'R'
	DB	00H, 'e', 00H, 'n', 00H, 'd', 00H, 'e', 00H, 'r', 00H, 'S', 00H
	DB	'u', 00H, 'r', 00H, 'f', 00H, 'a', 00H, 'c', 00H, 'e', 00H, 's'
	DB	00H, 00H, 00H				; `string'
; Function compile flags: /Ogty
_DATA	ENDS
;	COMDAT _$E249
_TEXT	SEGMENT
_$E249	PROC NEAR					; COMDAT

; 28   : EXECVAR		(INT,	RenderSurfaces,	 true  );

	push	OFFSET FLAT:??_C@_11A@?$AA?$AA@		; `string'
	push	OFFSET FLAT:??_C@_17NLGL@?$AAI?$AAN?$AAT?$AA?$AA@ ; `string'
	push	OFFSET FLAT:?RenderSurfaces@@3HA	; RenderSurfaces
	push	0
	push	OFFSET FLAT:??_C@_1BO@GOHM@?$AAR?$AAe?$AAn?$AAd?$AAe?$AAr?$AAS?$AAu?$AAr?$AAf?$AAa?$AAc?$AAe?$AAs?$AA?$AA@ ; `string'
	mov	ecx, OFFSET FLAT:?RenderSurfaces_ExecVar@@3VFExecVariable@@A
	call	DWORD PTR __imp_??0FExecVariable@@QAE@PAGKPAX00@Z
	ret	0
_$E249	ENDP
; Function compile flags: /Ogty
_TEXT	ENDS
;	COMDAT _$E251
_TEXT	SEGMENT
_$E251	PROC NEAR					; COMDAT
	push	OFFSET FLAT:_$E250
	call	_atexit
	pop	ecx
	ret	0
_$E251	ENDP
; Function compile flags: /Ogty
_TEXT	ENDS
;	COMDAT _$E250
_TEXT	SEGMENT
_$E250	PROC NEAR					; COMDAT
	mov	ecx, OFFSET FLAT:?RenderSurfaces_ExecVar@@3VFExecVariable@@A
	jmp	DWORD PTR __imp_??1FExecVariable@@QAE@XZ
_$E250	ENDP
; Function compile flags: /Ogty
_TEXT	ENDS
;	COMDAT _$E257
_TEXT	SEGMENT
_$E257	PROC NEAR					; COMDAT
	call	_$E254
	jmp	_$E256
_$E257	ENDP
_TEXT	ENDS
PUBLIC	??_C@_1BI@FDIM@?$AAR?$AAe?$AAn?$AAd?$AAe?$AAr?$AAL?$AAi?$AAn?$AAe?$AAs?$AA?$AA@ ; `string'
;	COMDAT ??_C@_1BI@FDIM@?$AAR?$AAe?$AAn?$AAd?$AAe?$AAr?$AAL?$AAi?$AAn?$AAe?$AAs?$AA?$AA@
_DATA	SEGMENT
??_C@_1BI@FDIM@?$AAR?$AAe?$AAn?$AAd?$AAe?$AAr?$AAL?$AAi?$AAn?$AAe?$AAs?$AA?$AA@ DB 'R'
	DB	00H, 'e', 00H, 'n', 00H, 'd', 00H, 'e', 00H, 'r', 00H, 'L', 00H
	DB	'i', 00H, 'n', 00H, 'e', 00H, 's', 00H, 00H, 00H ; `string'
; Function compile flags: /Ogty
_DATA	ENDS
;	COMDAT _$E254
_TEXT	SEGMENT
_$E254	PROC NEAR					; COMDAT

; 29   : EXECVAR		(INT,	RenderLines,	 true  );

	push	OFFSET FLAT:??_C@_11A@?$AA?$AA@		; `string'
	push	OFFSET FLAT:??_C@_17NLGL@?$AAI?$AAN?$AAT?$AA?$AA@ ; `string'
	push	OFFSET FLAT:?RenderLines@@3HA		; RenderLines
	push	0
	push	OFFSET FLAT:??_C@_1BI@FDIM@?$AAR?$AAe?$AAn?$AAd?$AAe?$AAr?$AAL?$AAi?$AAn?$AAe?$AAs?$AA?$AA@ ; `string'
	mov	ecx, OFFSET FLAT:?RenderLines_ExecVar@@3VFExecVariable@@A
	call	DWORD PTR __imp_??0FExecVariable@@QAE@PAGKPAX00@Z
	ret	0
_$E254	ENDP
; Function compile flags: /Ogty
_TEXT	ENDS
;	COMDAT _$E256
_TEXT	SEGMENT
_$E256	PROC NEAR					; COMDAT
	push	OFFSET FLAT:_$E255
	call	_atexit
	pop	ecx
	ret	0
_$E256	ENDP
; Function compile flags: /Ogty
_TEXT	ENDS
;	COMDAT _$E255
_TEXT	SEGMENT
_$E255	PROC NEAR					; COMDAT
	mov	ecx, OFFSET FLAT:?RenderLines_ExecVar@@3VFExecVariable@@A
	jmp	DWORD PTR __imp_??1FExecVariable@@QAE@XZ
_$E255	ENDP
; Function compile flags: /Ogty
_TEXT	ENDS
;	COMDAT _$E262
_TEXT	SEGMENT
_$E262	PROC NEAR					; COMDAT
	call	_$E259
	jmp	_$E261
_$E262	ENDP
_TEXT	ENDS
PUBLIC	??_C@_1BI@PCCF@?$AAR?$AAe?$AAn?$AAd?$AAe?$AAr?$AAT?$AAi?$AAl?$AAe?$AAs?$AA?$AA@ ; `string'
;	COMDAT ??_C@_1BI@PCCF@?$AAR?$AAe?$AAn?$AAd?$AAe?$AAr?$AAT?$AAi?$AAl?$AAe?$AAs?$AA?$AA@
_DATA	SEGMENT
??_C@_1BI@PCCF@?$AAR?$AAe?$AAn?$AAd?$AAe?$AAr?$AAT?$AAi?$AAl?$AAe?$AAs?$AA?$AA@ DB 'R'
	DB	00H, 'e', 00H, 'n', 00H, 'd', 00H, 'e', 00H, 'r', 00H, 'T', 00H
	DB	'i', 00H, 'l', 00H, 'e', 00H, 's', 00H, 00H, 00H ; `string'
; Function compile flags: /Ogty
_DATA	ENDS
;	COMDAT _$E259
_TEXT	SEGMENT
_$E259	PROC NEAR					; COMDAT

; 30   : EXECVAR		(INT,	RenderTiles,	 true  );

	push	OFFSET FLAT:??_C@_11A@?$AA?$AA@		; `string'
	push	OFFSET FLAT:??_C@_17NLGL@?$AAI?$AAN?$AAT?$AA?$AA@ ; `string'
	push	OFFSET FLAT:?RenderTiles@@3HA		; RenderTiles
	push	0
	push	OFFSET FLAT:??_C@_1BI@PCCF@?$AAR?$AAe?$AAn?$AAd?$AAe?$AAr?$AAT?$AAi?$AAl?$AAe?$AAs?$AA?$AA@ ; `string'
	mov	ecx, OFFSET FLAT:?RenderTiles_ExecVar@@3VFExecVariable@@A
	call	DWORD PTR __imp_??0FExecVariable@@QAE@PAGKPAX00@Z
	ret	0
_$E259	ENDP
; Function compile flags: /Ogty
_TEXT	ENDS
;	COMDAT _$E261
_TEXT	SEGMENT
_$E261	PROC NEAR					; COMDAT
	push	OFFSET FLAT:_$E260
	call	_atexit
	pop	ecx
	ret	0
_$E261	ENDP
; Function compile flags: /Ogty
_TEXT	ENDS
;	COMDAT _$E260
_TEXT	SEGMENT
_$E260	PROC NEAR					; COMDAT
	mov	ecx, OFFSET FLAT:?RenderTiles_ExecVar@@3VFExecVariable@@A
	jmp	DWORD PTR __imp_??1FExecVariable@@QAE@XZ
_$E260	ENDP
; Function compile flags: /Ogty
_TEXT	ENDS
;	COMDAT _$E267
_TEXT	SEGMENT
_$E267	PROC NEAR					; COMDAT
	call	_$E264
	jmp	_$E266
_$E267	ENDP
_TEXT	ENDS
PUBLIC	??_C@_1BK@KAKF@?$AAR?$AAe?$AAn?$AAd?$AAe?$AAr?$AAP?$AAo?$AAi?$AAn?$AAt?$AAs?$AA?$AA@ ; `string'
;	COMDAT ??_C@_1BK@KAKF@?$AAR?$AAe?$AAn?$AAd?$AAe?$AAr?$AAP?$AAo?$AAi?$AAn?$AAt?$AAs?$AA?$AA@
_DATA	SEGMENT
??_C@_1BK@KAKF@?$AAR?$AAe?$AAn?$AAd?$AAe?$AAr?$AAP?$AAo?$AAi?$AAn?$AAt?$AAs?$AA?$AA@ DB 'R'
	DB	00H, 'e', 00H, 'n', 00H, 'd', 00H, 'e', 00H, 'r', 00H, 'P', 00H
	DB	'o', 00H, 'i', 00H, 'n', 00H, 't', 00H, 's', 00H, 00H, 00H ; `string'
; Function compile flags: /Ogty
_DATA	ENDS
;	COMDAT _$E264
_TEXT	SEGMENT
_$E264	PROC NEAR					; COMDAT

; 31   : EXECVAR		(INT,	RenderPoints,	 true  );

	push	OFFSET FLAT:??_C@_11A@?$AA?$AA@		; `string'
	push	OFFSET FLAT:??_C@_17NLGL@?$AAI?$AAN?$AAT?$AA?$AA@ ; `string'
	push	OFFSET FLAT:?RenderPoints@@3HA		; RenderPoints
	push	0
	push	OFFSET FLAT:??_C@_1BK@KAKF@?$AAR?$AAe?$AAn?$AAd?$AAe?$AAr?$AAP?$AAo?$AAi?$AAn?$AAt?$AAs?$AA?$AA@ ; `string'
	mov	ecx, OFFSET FLAT:?RenderPoints_ExecVar@@3VFExecVariable@@A
	call	DWORD PTR __imp_??0FExecVariable@@QAE@PAGKPAX00@Z
	ret	0
_$E264	ENDP
; Function compile flags: /Ogty
_TEXT	ENDS
;	COMDAT _$E266
_TEXT	SEGMENT
_$E266	PROC NEAR					; COMDAT
	push	OFFSET FLAT:_$E265
	call	_atexit
	pop	ecx
	ret	0
_$E266	ENDP
; Function compile flags: /Ogty
_TEXT	ENDS
;	COMDAT _$E265
_TEXT	SEGMENT
_$E265	PROC NEAR					; COMDAT
	mov	ecx, OFFSET FLAT:?RenderPoints_ExecVar@@3VFExecVariable@@A
	jmp	DWORD PTR __imp_??1FExecVariable@@QAE@XZ
_$E265	ENDP
; Function compile flags: /Ogty
_TEXT	ENDS
;	COMDAT _$E272
_TEXT	SEGMENT
_$E272	PROC NEAR					; COMDAT
	call	_$E269
	jmp	_$E271
_$E272	ENDP
_TEXT	ENDS
PUBLIC	??_C@_1BI@OKEE@?$AAW?$AAo?$AAr?$AAl?$AAd?$AAD?$AAe?$AAt?$AAa?$AAi?$AAl?$AA?$AA@ ; `string'
;	COMDAT ??_C@_1BI@OKEE@?$AAW?$AAo?$AAr?$AAl?$AAd?$AAD?$AAe?$AAt?$AAa?$AAi?$AAl?$AA?$AA@
_DATA	SEGMENT
??_C@_1BI@OKEE@?$AAW?$AAo?$AAr?$AAl?$AAd?$AAD?$AAe?$AAt?$AAa?$AAi?$AAl?$AA?$AA@ DB 'W'
	DB	00H, 'o', 00H, 'r', 00H, 'l', 00H, 'd', 00H, 'D', 00H, 'e', 00H
	DB	't', 00H, 'a', 00H, 'i', 00H, 'l', 00H, 00H, 00H ; `string'
; Function compile flags: /Ogty
_DATA	ENDS
;	COMDAT _$E269
_TEXT	SEGMENT
_$E269	PROC NEAR					; COMDAT

; 32   : EXECVAR		(INT,	WorldDetail,	 true  );

	push	OFFSET FLAT:??_C@_11A@?$AA?$AA@		; `string'
	push	OFFSET FLAT:??_C@_17NLGL@?$AAI?$AAN?$AAT?$AA?$AA@ ; `string'
	push	OFFSET FLAT:?WorldDetail@@3HA		; WorldDetail
	push	0
	push	OFFSET FLAT:??_C@_1BI@OKEE@?$AAW?$AAo?$AAr?$AAl?$AAd?$AAD?$AAe?$AAt?$AAa?$AAi?$AAl?$AA?$AA@ ; `string'
	mov	ecx, OFFSET FLAT:?WorldDetail_ExecVar@@3VFExecVariable@@A
	call	DWORD PTR __imp_??0FExecVariable@@QAE@PAGKPAX00@Z
	ret	0
_$E269	ENDP
; Function compile flags: /Ogty
_TEXT	ENDS
;	COMDAT _$E271
_TEXT	SEGMENT
_$E271	PROC NEAR					; COMDAT
	push	OFFSET FLAT:_$E270
	call	_atexit
	pop	ecx
	ret	0
_$E271	ENDP
; Function compile flags: /Ogty
_TEXT	ENDS
;	COMDAT _$E270
_TEXT	SEGMENT
_$E270	PROC NEAR					; COMDAT
	mov	ecx, OFFSET FLAT:?WorldDetail_ExecVar@@3VFExecVariable@@A
	jmp	DWORD PTR __imp_??1FExecVariable@@QAE@XZ
_$E270	ENDP
; Function compile flags: /Ogty
_TEXT	ENDS
;	COMDAT _$E277
_TEXT	SEGMENT
_$E277	PROC NEAR					; COMDAT
	call	_$E274
	jmp	_$E276
_$E277	ENDP
_TEXT	ENDS
PUBLIC	??_C@_1ME@HHPG@?$AAW?$AAh?$AAe?$AAt?$AAh?$AAe?$AAr?$AA?5?$AAo?$AAr?$AA?5?$AAn?$AAo?$AAt?$AA?5?$AAD?$AA3?$AAD?$AA?8?$AAs@ ; `string'
PUBLIC	??_C@_1BM@FL@?$AAC?$AAa?$AAc?$AAh?$AAe?$AAB?$AAl?$AAe?$AAn?$AAd?$AAi?$AAn?$AAg?$AA?$AA@ ; `string'
;	COMDAT ??_C@_1ME@HHPG@?$AAW?$AAh?$AAe?$AAt?$AAh?$AAe?$AAr?$AA?5?$AAo?$AAr?$AA?5?$AAn?$AAo?$AAt?$AA?5?$AAD?$AA3?$AAD?$AA?8?$AAs@
_DATA	SEGMENT
??_C@_1ME@HHPG@?$AAW?$AAh?$AAe?$AAt?$AAh?$AAe?$AAr?$AA?5?$AAo?$AAr?$AA?5?$AAn?$AAo?$AAt?$AA?5?$AAD?$AA3?$AAD?$AA?8?$AAs@ DB 'W'
	DB	00H, 'h', 00H, 'e', 00H, 't', 00H, 'h', 00H, 'e', 00H, 'r', 00H
	DB	' ', 00H, 'o', 00H, 'r', 00H, ' ', 00H, 'n', 00H, 'o', 00H, 't'
	DB	00H, ' ', 00H, 'D', 00H, '3', 00H, 'D', 00H, '''', 00H, 's', 00H
	DB	' ', 00H, 'r', 00H, 'e', 00H, 'n', 00H, 'd', 00H, 'e', 00H, 'r'
	DB	00H, ' ', 00H, 's', 00H, 't', 00H, 'a', 00H, 't', 00H, 'e', 00H
	DB	's', 00H, ' ', 00H, 's', 00H, 'h', 00H, 'o', 00H, 'u', 00H, 'l'
	DB	00H, 'd', 00H, ' ', 00H, 'b', 00H, 'e', 00H, ' ', 00H, 'c', 00H
	DB	'a', 00H, 'c', 00H, 'h', 00H, 'e', 00H, 'd', 00H, '.', 00H, ' '
	DB	00H, ' ', 00H, 'U', 00H, 's', 00H, 'e', 00H, 'f', 00H, 'u', 00H
	DB	'l', 00H, ' ', 00H, 'f', 00H, 'o', 00H, 'r', 00H, ' ', 00H, 'd'
	DB	00H, 'e', 00H, 'b', 00H, 'u', 00H, 'g', 00H, 'g', 00H, 'i', 00H
	DB	'n', 00H, 'g', 00H, ' ', 00H, 'r', 00H, 'e', 00H, 'n', 00H, 'd'
	DB	00H, 'e', 00H, 'r', 00H, ' ', 00H, 's', 00H, 't', 00H, 'a', 00H
	DB	't', 00H, 'e', 00H, ' ', 00H, 'p', 00H, 'r', 00H, 'o', 00H, 'b'
	DB	00H, 'l', 00H, 'e', 00H, 'm', 00H, 's', 00H, '.', 00H, 00H, 00H ; `string'
_DATA	ENDS
;	COMDAT ??_C@_1BM@FL@?$AAC?$AAa?$AAc?$AAh?$AAe?$AAB?$AAl?$AAe?$AAn?$AAd?$AAi?$AAn?$AAg?$AA?$AA@
_DATA	SEGMENT
??_C@_1BM@FL@?$AAC?$AAa?$AAc?$AAh?$AAe?$AAB?$AAl?$AAe?$AAn?$AAd?$AAi?$AAn?$AAg?$AA?$AA@ DB 'C'
	DB	00H, 'a', 00H, 'c', 00H, 'h', 00H, 'e', 00H, 'B', 00H, 'l', 00H
	DB	'e', 00H, 'n', 00H, 'd', 00H, 'i', 00H, 'n', 00H, 'g', 00H, 00H
	DB	00H						; `string'
; Function compile flags: /Ogty
_DATA	ENDS
;	COMDAT _$E274
_TEXT	SEGMENT
_$E274	PROC NEAR					; COMDAT

; 33   : EXECVAR_HELP(INT,   CacheBlending,	 true, "Whether or not D3D's render states should be cached.  Useful for debugging render state problems." );

	push	OFFSET FLAT:??_C@_1ME@HHPG@?$AAW?$AAh?$AAe?$AAt?$AAh?$AAe?$AAr?$AA?5?$AAo?$AAr?$AA?5?$AAn?$AAo?$AAt?$AA?5?$AAD?$AA3?$AAD?$AA?8?$AAs@ ; `string'
	push	OFFSET FLAT:??_C@_17NLGL@?$AAI?$AAN?$AAT?$AA?$AA@ ; `string'
	push	OFFSET FLAT:?CacheBlending@@3HA		; CacheBlending
	push	0
	push	OFFSET FLAT:??_C@_1BM@FL@?$AAC?$AAa?$AAc?$AAh?$AAe?$AAB?$AAl?$AAe?$AAn?$AAd?$AAi?$AAn?$AAg?$AA?$AA@ ; `string'
	mov	ecx, OFFSET FLAT:?CacheBlending_ExecVar@@3VFExecVariable@@A
	call	DWORD PTR __imp_??0FExecVariable@@QAE@PAGKPAX00@Z
	ret	0
_$E274	ENDP
; Function compile flags: /Ogty
_TEXT	ENDS
;	COMDAT _$E276
_TEXT	SEGMENT
_$E276	PROC NEAR					; COMDAT
	push	OFFSET FLAT:_$E275
	call	_atexit
	pop	ecx
	ret	0
_$E276	ENDP
; Function compile flags: /Ogty
_TEXT	ENDS
;	COMDAT _$E275
_TEXT	SEGMENT
_$E275	PROC NEAR					; COMDAT
	mov	ecx, OFFSET FLAT:?CacheBlending_ExecVar@@3VFExecVariable@@A
	jmp	DWORD PTR __imp_??1FExecVariable@@QAE@XZ
_$E275	ENDP
; Function compile flags: /Ogty
_TEXT	ENDS
;	COMDAT _$E282
_TEXT	SEGMENT
_$E282	PROC NEAR					; COMDAT
	call	_$E279
	jmp	_$E281
_$E282	ENDP
_TEXT	ENDS
PUBLIC	??_C@_1DA@FCHG@?$AAD?$AAe?$AAt?$AAa?$AAi?$AAl?$AA?5?$AAt?$AAe?$AAx?$AAt?$AAu?$AAr?$AAe?$AA?5?$AAZ?$AA?5?$AAr?$AAa?$AAn@ ; `string'
PUBLIC	??_C@_1M@BODI@?$AAN?$AAe?$AAa?$AAr?$AAZ?$AA?$AA@ ; `string'
;	COMDAT ??_C@_1DA@FCHG@?$AAD?$AAe?$AAt?$AAa?$AAi?$AAl?$AA?5?$AAt?$AAe?$AAx?$AAt?$AAu?$AAr?$AAe?$AA?5?$AAZ?$AA?5?$AAr?$AAa?$AAn@
_DATA	SEGMENT
??_C@_1DA@FCHG@?$AAD?$AAe?$AAt?$AAa?$AAi?$AAl?$AA?5?$AAt?$AAe?$AAx?$AAt?$AAu?$AAr?$AAe?$AA?5?$AAZ?$AA?5?$AAr?$AAa?$AAn@ DB 'D'
	DB	00H, 'e', 00H, 't', 00H, 'a', 00H, 'i', 00H, 'l', 00H, ' ', 00H
	DB	't', 00H, 'e', 00H, 'x', 00H, 't', 00H, 'u', 00H, 'r', 00H, 'e'
	DB	00H, ' ', 00H, 'Z', 00H, ' ', 00H, 'r', 00H, 'a', 00H, 'n', 00H
	DB	'g', 00H, 'e', 00H, '.', 00H, 00H, 00H	; `string'
_DATA	ENDS
;	COMDAT ??_C@_1M@BODI@?$AAN?$AAe?$AAa?$AAr?$AAZ?$AA?$AA@
_DATA	SEGMENT
??_C@_1M@BODI@?$AAN?$AAe?$AAa?$AAr?$AAZ?$AA?$AA@ DB 'N', 00H, 'e', 00H, 'a'
	DB	00H, 'r', 00H, 'Z', 00H, 00H, 00H		; `string'
; Function compile flags: /Ogty
_DATA	ENDS
;	COMDAT _$E279
_TEXT	SEGMENT
_$E279	PROC NEAR					; COMDAT

; 50   : EXECVAR_HELP(float, NearZ, 200.f, "Detail texture Z range.");

	push	OFFSET FLAT:??_C@_1DA@FCHG@?$AAD?$AAe?$AAt?$AAa?$AAi?$AAl?$AA?5?$AAt?$AAe?$AAx?$AAt?$AAu?$AAr?$AAe?$AA?5?$AAZ?$AA?5?$AAr?$AAa?$AAn@ ; `string'
	push	OFFSET FLAT:??_C@_1M@IEEK@?$AAf?$AAl?$AAo?$AAa?$AAt?$AA?$AA@ ; `string'
	push	OFFSET FLAT:?NearZ@@3MA			; NearZ
	push	0
	push	OFFSET FLAT:??_C@_1M@BODI@?$AAN?$AAe?$AAa?$AAr?$AAZ?$AA?$AA@ ; `string'
	mov	ecx, OFFSET FLAT:?NearZ_ExecVar@@3VFExecVariable@@A
	call	DWORD PTR __imp_??0FExecVariable@@QAE@PAGKPAX00@Z
	ret	0
_$E279	ENDP
; Function compile flags: /Ogty
_TEXT	ENDS
;	COMDAT _$E281
_TEXT	SEGMENT
_$E281	PROC NEAR					; COMDAT
	push	OFFSET FLAT:_$E280
	call	_atexit
	pop	ecx
	ret	0
_$E281	ENDP
; Function compile flags: /Ogty
_TEXT	ENDS
;	COMDAT _$E280
_TEXT	SEGMENT
_$E280	PROC NEAR					; COMDAT
	mov	ecx, OFFSET FLAT:?NearZ_ExecVar@@3VFExecVariable@@A
	jmp	DWORD PTR __imp_??1FExecVariable@@QAE@XZ
_$E280	ENDP
; Function compile flags: /Ogty
_TEXT	ENDS
;	COMDAT _$E287
_TEXT	SEGMENT
_$E287	PROC NEAR					; COMDAT
	call	_$E284
	jmp	_$E286
_$E287	ENDP
_TEXT	ENDS
PUBLIC	?GetNearZ_ExecFuncCall@@YIXPAVFExecVariable@@HPAPAG@Z ; GetNearZ_ExecFuncCall
PUBLIC	??_C@_1BC@MLDM@?$AAG?$AAe?$AAt?$AAN?$AAe?$AAa?$AAr?$AAZ?$AA?$AA@ ; `string'
EXTRN	__imp_??0FExecFunction@@QAE@PAGP6IXPAVFExecVariable@@HPAPAG@Z0@Z:NEAR
;	COMDAT ??_C@_1BC@MLDM@?$AAG?$AAe?$AAt?$AAN?$AAe?$AAa?$AAr?$AAZ?$AA?$AA@
_DATA	SEGMENT
??_C@_1BC@MLDM@?$AAG?$AAe?$AAt?$AAN?$AAe?$AAa?$AAr?$AAZ?$AA?$AA@ DB 'G', 00H
	DB	'e', 00H, 't', 00H, 'N', 00H, 'e', 00H, 'a', 00H, 'r', 00H, 'Z'
	DB	00H, 00H, 00H				; `string'
; Function compile flags: /Ogty
_DATA	ENDS
;	COMDAT _$E284
_TEXT	SEGMENT
_$E284	PROC NEAR					; COMDAT

; 51   : EXECFUNC(GetNearZ)

	push	OFFSET FLAT:??_C@_11A@?$AA?$AA@		; `string'
	push	OFFSET FLAT:?GetNearZ_ExecFuncCall@@YIXPAVFExecVariable@@HPAPAG@Z ; GetNearZ_ExecFuncCall
	push	OFFSET FLAT:??_C@_1BC@MLDM@?$AAG?$AAe?$AAt?$AAN?$AAe?$AAa?$AAr?$AAZ?$AA?$AA@ ; `string'
	mov	ecx, OFFSET FLAT:?GetNearZ_ExecFunc@@3VFExecFunction@@A
	call	DWORD PTR __imp_??0FExecFunction@@QAE@PAGP6IXPAVFExecVariable@@HPAPAG@Z0@Z
	ret	0
_$E284	ENDP
; Function compile flags: /Ogty
_TEXT	ENDS
;	COMDAT _$E286
_TEXT	SEGMENT
_$E286	PROC NEAR					; COMDAT
	push	OFFSET FLAT:_$E285
	call	_atexit
	pop	ecx
	ret	0
_$E286	ENDP
_TEXT	ENDS
EXTRN	__imp_??1FExecFunction@@QAE@XZ:NEAR
; Function compile flags: /Ogty
;	COMDAT _$E285
_TEXT	SEGMENT
_$E285	PROC NEAR					; COMDAT
	mov	ecx, OFFSET FLAT:?GetNearZ_ExecFunc@@3VFExecFunction@@A
	jmp	DWORD PTR __imp_??1FExecFunction@@QAE@XZ
_$E285	ENDP
_TEXT	ENDS
PUBLIC	??_C@_15PBC@?$AA?$CF?$AAf?$AA?$AA@		; `string'
EXTRN	__fltused:NEAR
EXTRN	__imp_?GDnExec@@3PAVFDnExec@@A:DWORD
EXTRN	__imp_?Printf@FDnExec@@QAAXPAGZZ:NEAR
;	COMDAT ??_C@_15PBC@?$AA?$CF?$AAf?$AA?$AA@
_DATA	SEGMENT
??_C@_15PBC@?$AA?$CF?$AAf?$AA?$AA@ DB '%', 00H, 'f', 00H, 00H, 00H ; `string'
; Function compile flags: /Ogty
_DATA	ENDS
;	COMDAT ?GetNearZ_ExecFuncCall@@YIXPAVFExecVariable@@HPAPAG@Z
_TEXT	SEGMENT
?GetNearZ_ExecFuncCall@@YIXPAVFExecVariable@@HPAPAG@Z PROC NEAR ; GetNearZ_ExecFuncCall, COMDAT
; _argVar$ = ecx
; _argc$ = edx

; 53   : 	GDnExec->Printf(TEXT("%f"), NearZ);

	fld	DWORD PTR ?NearZ@@3MA			; NearZ
	mov	eax, DWORD PTR __imp_?GDnExec@@3PAVFDnExec@@A
	mov	ecx, DWORD PTR [eax]
	sub	esp, 8
	fstp	QWORD PTR [esp]
	push	OFFSET FLAT:??_C@_15PBC@?$AA?$CF?$AAf?$AA?$AA@ ; `string'
	push	ecx
	call	DWORD PTR __imp_?Printf@FDnExec@@QAAXPAGZZ
	add	esp, 16					; 00000010H

; 54   : }

	ret	4
?GetNearZ_ExecFuncCall@@YIXPAVFExecVariable@@HPAPAG@Z ENDP ; GetNearZ_ExecFuncCall
; Function compile flags: /Ogty
_TEXT	ENDS
;	COMDAT _$E290
_TEXT	SEGMENT
_$E290	PROC NEAR					; COMDAT
	jmp	_$E289
_$E290	ENDP
_TEXT	ENDS
PUBLIC	__real@3f8147ae
_BSS	SEGMENT
_NEAR_CLIP_HACK DD 01H DUP (?)
_BSS	ENDS
;	COMDAT __real@3f8147ae
CONST	SEGMENT
__real@3f8147ae DD 03f8147aer			; 1.01
; Function compile flags: /Ogty
CONST	ENDS
;	COMDAT _$E289
_TEXT	SEGMENT
_$E289	PROC NEAR					; COMDAT

; 58   : static const FLOAT NEAR_CLIP_HACK=NEAR_CLIP*1.01f; // vogel: workaround for precision issues

	fld	DWORD PTR _NEAR_CLIP
	fmul	DWORD PTR __real@3f8147ae
	fstp	DWORD PTR _NEAR_CLIP_HACK
	ret	0
_$E289	ENDP
_TEXT	ENDS
PUBLIC	?GetFormatBPP@@YAHW4_D3DFORMAT@@@Z		; GetFormatBPP
